TN:
SF:/Applications/Xcode.app/Contents/Developer/Platforms/MacOSX.platform/Developer/SDKs/MacOSX10.15.sdk/usr/include/_ctype.h
FN:135,_Z7isasciii
FNDA:431640,_Z7isasciii
FNF:1
FNH:1
DA:135,431640
DA:137,431640
LF:2
LH:2
end_of_record
TN:
SF:/Applications/Xcode.app/Contents/Developer/Toolchains/XcodeDefault.xctoolchain/usr/include/c++/v1/__bit_reference
FN:51,_ZNKSt3__115__bit_referenceINS_6vectorIbNS_9allocatorIbEEEELb1EEcvbEv
FN:75,_ZNSt3__115__bit_referenceINS_6vectorIbNS_9allocatorIbEEEELb1EEC2EPmm
FN:75,_ZNSt3__115__bit_referenceINS_6vectorIbNS_9allocatorIbEEEELb1EEC1EPmm
FN:140,_ZNKSt3__121__bit_const_referenceINS_8__bitsetILm1ELm8EEEEcvbEv
FN:148,_ZNSt3__121__bit_const_referenceINS_8__bitsetILm1ELm8EEEEC1EPKmm
FN:148,_ZNSt3__121__bit_const_referenceINS_8__bitsetILm1ELm8EEEEC2EPKmm
FN:319,_ZNSt3__114__fill_n_falseINS_6vectorIbNS_9allocatorIbEEEEEEvNS_14__bit_iteratorIT_Lb0EXLi0EEEENS6_9size_typeE
FN:349,_ZNSt3__113__fill_n_trueINS_6vectorIbNS_9allocatorIbEEEEEEvNS_14__bit_iteratorIT_Lb0EXLi0EEEENS6_9size_typeE
FN:380,_ZNSt3__1L6fill_nINS_6vectorIbNS_9allocatorIbEEEEEEvNS_14__bit_iteratorIT_Lb0EXLi0EEEENS6_9size_typeEb
FN:405,_ZNSt3__114__copy_alignedINS_6vectorIbNS_9allocatorIbEEEELb0EEENS_14__bit_iteratorIT_Lb0EXLi0EEEENS5_IS6_XT0_EXLi0EEEES8_S7_
FN:405,_ZNSt3__114__copy_alignedINS_6vectorIbNS_9allocatorIbEEEELb1EEENS_14__bit_iteratorIT_Lb0EXLi0EEEENS5_IS6_XT0_EXLi0EEEES8_S7_
FN:454,_ZNSt3__116__copy_unalignedINS_6vectorIbNS_9allocatorIbEEEELb1EEENS_14__bit_iteratorIT_Lb0EXLi0EEEENS5_IS6_XT0_EXLi0EEEES8_S7_
FN:454,_ZNSt3__116__copy_unalignedINS_6vectorIbNS_9allocatorIbEEEELb0EEENS_14__bit_iteratorIT_Lb0EXLi0EEEENS5_IS6_XT0_EXLi0EEEES8_S7_
FN:533,_ZNSt3__1L4copyINS_6vectorIbNS_9allocatorIbEEEELb0EEENS_14__bit_iteratorIT_Lb0EXLi0EEEENS5_IS6_XT0_EXLi0EEEES8_S7_
FN:533,_ZNSt3__1L4copyINS_6vectorIbNS_9allocatorIbEEEELb1EEENS_14__bit_iteratorIT_Lb0EXLi0EEEENS5_IS6_XT0_EXLi0EEEES8_S7_
FN:1106,_ZNSt3__114__bit_iteratorINS_6vectorIbNS_9allocatorIbEEEELb0ELm0EEC1Ev
FN:1106,_ZNSt3__114__bit_iteratorINS_6vectorIbNS_9allocatorIbEEEELb0ELm0EEC2Ev
FN:1113,_ZNSt3__114__bit_iteratorINS_6vectorIbNS_9allocatorIbEEEELb0ELm0EEC2ERKS5_
FN:1113,_ZNSt3__114__bit_iteratorINS_6vectorIbNS_9allocatorIbEEEELb0ELm0EEC1ERKS5_
FN:1192,_ZNSt3__1miERKNS_14__bit_iteratorINS_6vectorIbNS_9allocatorIbEEEELb1ELm0EEES7_
FN:1192,_ZNSt3__1miERKNS_14__bit_iteratorINS_6vectorIbNS_9allocatorIbEEEELb0ELm0EEES7_
FN:1217,_ZNSt3__114__bit_iteratorINS_6vectorIbNS_9allocatorIbEEEELb0ELm0EEC1EPmj
FN:1217,_ZNSt3__114__bit_iteratorINS_6vectorIbNS_9allocatorIbEEEELb0ELm0EEC2EPmj
FN:1217,_ZNSt3__114__bit_iteratorINS_6vectorIbNS_9allocatorIbEEEELb1ELm0EEC1EPKmj
FN:1217,_ZNSt3__114__bit_iteratorINS_6vectorIbNS_9allocatorIbEEEELb1ELm0EEC2EPKmj
FNDA:0,_ZNSt3__114__bit_iteratorINS_6vectorIbNS_9allocatorIbEEEELb0ELm0EEC2EPmj
FNDA:0,_ZNSt3__1miERKNS_14__bit_iteratorINS_6vectorIbNS_9allocatorIbEEEELb0ELm0EEES7_
FNDA:0,_ZNSt3__1L4copyINS_6vectorIbNS_9allocatorIbEEEELb1EEENS_14__bit_iteratorIT_Lb0EXLi0EEEENS5_IS6_XT0_EXLi0EEEES8_S7_
FNDA:0,_ZNKSt3__115__bit_referenceINS_6vectorIbNS_9allocatorIbEEEELb1EEcvbEv
FNDA:0,_ZNSt3__114__bit_iteratorINS_6vectorIbNS_9allocatorIbEEEELb1ELm0EEC1EPKmj
FNDA:0,_ZNSt3__113__fill_n_trueINS_6vectorIbNS_9allocatorIbEEEEEEvNS_14__bit_iteratorIT_Lb0EXLi0EEEENS6_9size_typeE
FNDA:0,_ZNSt3__114__bit_iteratorINS_6vectorIbNS_9allocatorIbEEEELb1ELm0EEC2EPKmj
FNDA:0,_ZNSt3__121__bit_const_referenceINS_8__bitsetILm1ELm8EEEEC2EPKmm
FNDA:0,_ZNSt3__116__copy_unalignedINS_6vectorIbNS_9allocatorIbEEEELb1EEENS_14__bit_iteratorIT_Lb0EXLi0EEEENS5_IS6_XT0_EXLi0EEEES8_S7_
FNDA:0,_ZNSt3__114__copy_alignedINS_6vectorIbNS_9allocatorIbEEEELb1EEENS_14__bit_iteratorIT_Lb0EXLi0EEEENS5_IS6_XT0_EXLi0EEEES8_S7_
FNDA:0,_ZNSt3__116__copy_unalignedINS_6vectorIbNS_9allocatorIbEEEELb0EEENS_14__bit_iteratorIT_Lb0EXLi0EEEENS5_IS6_XT0_EXLi0EEEES8_S7_
FNDA:0,_ZNSt3__121__bit_const_referenceINS_8__bitsetILm1ELm8EEEEC1EPKmm
FNDA:0,_ZNSt3__114__copy_alignedINS_6vectorIbNS_9allocatorIbEEEELb0EEENS_14__bit_iteratorIT_Lb0EXLi0EEEENS5_IS6_XT0_EXLi0EEEES8_S7_
FNDA:0,_ZNKSt3__121__bit_const_referenceINS_8__bitsetILm1ELm8EEEEcvbEv
FNDA:0,_ZNSt3__114__bit_iteratorINS_6vectorIbNS_9allocatorIbEEEELb0ELm0EEC1Ev
FNDA:0,_ZNSt3__115__bit_referenceINS_6vectorIbNS_9allocatorIbEEEELb1EEC2EPmm
FNDA:0,_ZNSt3__114__bit_iteratorINS_6vectorIbNS_9allocatorIbEEEELb0ELm0EEC2ERKS5_
FNDA:0,_ZNSt3__114__bit_iteratorINS_6vectorIbNS_9allocatorIbEEEELb0ELm0EEC2Ev
FNDA:0,_ZNSt3__114__bit_iteratorINS_6vectorIbNS_9allocatorIbEEEELb0ELm0EEC1ERKS5_
FNDA:0,_ZNSt3__115__bit_referenceINS_6vectorIbNS_9allocatorIbEEEELb1EEC1EPmm
FNDA:0,_ZNSt3__1L6fill_nINS_6vectorIbNS_9allocatorIbEEEEEEvNS_14__bit_iteratorIT_Lb0EXLi0EEEENS6_9size_typeEb
FNDA:0,_ZNSt3__1L4copyINS_6vectorIbNS_9allocatorIbEEEELb0EEENS_14__bit_iteratorIT_Lb0EXLi0EEEENS5_IS6_XT0_EXLi0EEEES8_S7_
FNDA:0,_ZNSt3__114__bit_iteratorINS_6vectorIbNS_9allocatorIbEEEELb0ELm0EEC1EPmj
FNDA:0,_ZNSt3__114__fill_n_falseINS_6vectorIbNS_9allocatorIbEEEEEEvNS_14__bit_iteratorIT_Lb0EXLi0EEEENS6_9size_typeE
FNDA:0,_ZNSt3__1miERKNS_14__bit_iteratorINS_6vectorIbNS_9allocatorIbEEEELb1ELm0EEES7_
FNF:25
FNH:0
DA:51,0
DA:52,0
DA:75,0
DA:76,0
DA:140,0
DA:141,0
DA:148,0
DA:149,0
DA:319,0
DA:323,0
DA:325,0
DA:327,0
DA:328,0
DA:329,0
DA:330,0
DA:331,0
DA:332,0
DA:333,0
DA:335,0
DA:336,0
DA:337,0
DA:339,0
DA:341,0
DA:342,0
DA:343,0
DA:344,0
DA:345,0
DA:349,0
DA:353,0
DA:355,0
DA:357,0
DA:358,0
DA:359,0
DA:360,0
DA:361,0
DA:362,0
DA:363,0
DA:365,0
DA:366,0
DA:367,0
DA:369,0
DA:371,0
DA:372,0
DA:373,0
DA:374,0
DA:375,0
DA:380,0
DA:382,0
DA:384,0
DA:385,0
DA:387,0
DA:388,0
DA:389,0
DA:405,0
DA:411,0
DA:412,0
DA:413,0
DA:416,0
DA:418,0
DA:419,0
DA:420,0
DA:421,0
DA:422,0
DA:423,0
DA:424,0
DA:425,0
DA:426,0
DA:427,0
DA:429,0
DA:432,0
DA:433,0
DA:434,0
DA:435,0
DA:436,0
DA:437,0
DA:439,0
DA:441,0
DA:442,0
DA:443,0
DA:444,0
DA:445,0
DA:446,0
DA:447,0
DA:448,0
DA:449,0
DA:454,0
DA:461,0
DA:462,0
DA:465,0
DA:467,0
DA:468,0
DA:469,0
DA:470,0
DA:471,0
DA:472,0
DA:473,0
DA:474,0
DA:475,0
DA:476,0
DA:477,0
DA:479,0
DA:480,0
DA:481,0
DA:482,0
DA:483,0
DA:485,0
DA:486,0
DA:487,0
DA:488,0
DA:489,0
DA:490,0
DA:492,0
DA:495,0
DA:496,0
DA:497,0
DA:499,0
DA:500,0
DA:501,0
DA:502,0
DA:503,0
DA:504,0
DA:505,0
DA:507,0
DA:509,0
DA:510,0
DA:511,0
DA:512,0
DA:513,0
DA:514,0
DA:515,0
DA:516,0
DA:517,0
DA:518,0
DA:520,0
DA:521,0
DA:522,0
DA:523,0
DA:524,0
DA:525,0
DA:526,0
DA:527,0
DA:533,0
DA:535,0
DA:536,0
DA:537,0
DA:538,0
DA:1106,0
DA:1108,0
DA:1110,0
DA:1113,0
DA:1114,0
DA:1192,0
DA:1193,0
DA:1217,0
DA:1218,0
LF:155
LH:0
end_of_record
TN:
SF:/Applications/Xcode.app/Contents/Developer/Toolchains/XcodeDefault.xctoolchain/usr/include/c++/v1/__functional_base
FN:54,_ZNKSt3__14lessIPKN5boost6system14error_categoryEEclERKS5_S8_
FNDA:0,_ZNKSt3__14lessIPKN5boost6system14error_categoryEEclERKS5_S8_
FNF:1
FNH:0
DA:54,0
DA:55,0
LF:2
LH:0
end_of_record
TN:
SF:/Applications/Xcode.app/Contents/Developer/Toolchains/XcodeDefault.xctoolchain/usr/include/c++/v1/__locale
FN:224,_ZNSt3__1L9has_facetINS_7codecvtIcc11__mbstate_tEEEEbRKNS_6localeE
FN:232,_ZNSt3__1L9use_facetINS_5ctypeIcEEEERKT_RKNS_6localeE
FN:232,_ZNSt3__1L9use_facetINS_7codecvtIcc11__mbstate_tEEEERKT_RKNS_6localeE
FN:591,_ZNKSt3__15ctypeIcE2isEjc
FN:647,_ZNKSt3__15ctypeIcE5widenEc
FN:659,_ZNKSt3__15ctypeIcE6narrowEcc
FN:882,_ZNKSt3__17codecvtIcc11__mbstate_tE3outERS1_PKcS5_RS5_PcS7_RS7_
FN:890,_ZNKSt3__17codecvtIcc11__mbstate_tE7unshiftERS1_PcS4_RS4_
FN:897,_ZNKSt3__17codecvtIcc11__mbstate_tE2inERS1_PKcS5_RS5_PcS7_RS7_
FN:905,_ZNKSt3__17codecvtIcc11__mbstate_tE8encodingEv
FN:911,_ZNKSt3__17codecvtIcc11__mbstate_tE13always_noconvEv
FN:917,_ZNKSt3__17codecvtIcc11__mbstate_tE6lengthERS1_PKcS5_m
FNDA:132,_ZNKSt3__17codecvtIcc11__mbstate_tE13always_noconvEv
FNDA:36168,_ZNKSt3__15ctypeIcE5widenEc
FNDA:0,_ZNKSt3__17codecvtIcc11__mbstate_tE3outERS1_PKcS5_RS5_PcS7_RS7_
FNDA:0,_ZNKSt3__17codecvtIcc11__mbstate_tE2inERS1_PKcS5_RS5_PcS7_RS7_
FNDA:0,_ZNKSt3__17codecvtIcc11__mbstate_tE7unshiftERS1_PcS4_RS4_
FNDA:467808,_ZNSt3__1L9use_facetINS_5ctypeIcEEEERKT_RKNS_6localeE
FNDA:0,_ZNKSt3__15ctypeIcE6narrowEcc
FNDA:0,_ZNKSt3__17codecvtIcc11__mbstate_tE8encodingEv
FNDA:431640,_ZNKSt3__15ctypeIcE2isEjc
FNDA:132,_ZNSt3__1L9use_facetINS_7codecvtIcc11__mbstate_tEEEERKT_RKNS_6localeE
FNDA:132,_ZNSt3__1L9has_facetINS_7codecvtIcc11__mbstate_tEEEEbRKNS_6localeE
FNDA:0,_ZNKSt3__17codecvtIcc11__mbstate_tE6lengthERS1_PKcS5_m
FNF:12
FNH:6
DA:224,132
DA:226,132
DA:232,467940
DA:234,467940
DA:591,431640
DA:593,431640
DA:647,36168
DA:649,36168
DA:659,0
DA:661,0
DA:882,0
DA:886,0
DA:890,0
DA:893,0
DA:897,0
DA:901,0
DA:905,0
DA:907,0
DA:911,132
DA:913,132
DA:917,0
DA:919,0
LF:22
LH:10
end_of_record
TN:
SF:/Applications/Xcode.app/Contents/Developer/Toolchains/XcodeDefault.xctoolchain/usr/include/c++/v1/__mutex_base
FN:103,_ZNSt3__110lock_guardINS_5mutexEEC2ERS1_
FN:103,_ZNSt3__110lock_guardINS_5mutexEEC1ERS1_
FN:109,_ZNSt3__110lock_guardINS_5mutexEED2Ev
FN:109,_ZNSt3__110lock_guardINS_5mutexEED1Ev
FNDA:0,_ZNSt3__110lock_guardINS_5mutexEED1Ev
FNDA:0,_ZNSt3__110lock_guardINS_5mutexEEC2ERS1_
FNDA:0,_ZNSt3__110lock_guardINS_5mutexEED2Ev
FNDA:0,_ZNSt3__110lock_guardINS_5mutexEEC1ERS1_
FNF:4
FNH:0
DA:103,0
DA:104,0
DA:109,0
LF:3
LH:0
end_of_record
TN:
SF:/Applications/Xcode.app/Contents/Developer/Toolchains/XcodeDefault.xctoolchain/usr/include/c++/v1/__split_buffer
FN:56,_ZNSt3__114__split_bufferINS_12basic_stringIcNS_11char_traitsIcEENS_9allocatorIcEEEERNS4_IS6_EEE7__allocEv
FN:56,_ZNSt3__114__split_bufferIN5boost2io6detail11format_itemIcNS_11char_traitsIcEENS_9allocatorIcEEEERNS7_IS9_EEE7__allocEv
FN:56,_ZNSt3__114__split_bufferI6OpcodeRNS_9allocatorIS1_EEE7__allocEv
FN:56,_ZNSt3__114__split_bufferIhRNS_9allocatorIhEEE7__allocEv
FN:58,_ZNSt3__114__split_bufferI6OpcodeRNS_9allocatorIS1_EEE9__end_capEv
FN:58,_ZNSt3__114__split_bufferIhRNS_9allocatorIhEEE9__end_capEv
FN:58,_ZNSt3__114__split_bufferIN5boost2io6detail11format_itemIcNS_11char_traitsIcEENS_9allocatorIcEEEERNS7_IS9_EEE9__end_capEv
FN:58,_ZNSt3__114__split_bufferINS_12basic_stringIcNS_11char_traitsIcEENS_9allocatorIcEEEERNS4_IS6_EEE9__end_capEv
FN:59,_ZNKSt3__114__split_bufferIhRNS_9allocatorIhEEE9__end_capEv
FN:59,_ZNKSt3__114__split_bufferINS_12basic_stringIcNS_11char_traitsIcEENS_9allocatorIcEEEERNS4_IS6_EEE9__end_capEv
FN:59,_ZNKSt3__114__split_bufferIN5boost2io6detail11format_itemIcNS_11char_traitsIcEENS_9allocatorIcEEEERNS7_IS9_EEE9__end_capEv
FN:59,_ZNKSt3__114__split_bufferI6OpcodeRNS_9allocatorIS1_EEE9__end_capEv
FN:87,_ZNSt3__114__split_bufferIhRNS_9allocatorIhEEE5clearEv
FN:87,_ZNSt3__114__split_bufferI6OpcodeRNS_9allocatorIS1_EEE5clearEv
FN:87,_ZNSt3__114__split_bufferINS_12basic_stringIcNS_11char_traitsIcEENS_9allocatorIcEEEERNS4_IS6_EEE5clearEv
FN:87,_ZNSt3__114__split_bufferIN5boost2io6detail11format_itemIcNS_11char_traitsIcEENS_9allocatorIcEEEERNS7_IS9_EEE5clearEv
FN:91,_ZNKSt3__114__split_bufferIN5boost2io6detail11format_itemIcNS_11char_traitsIcEENS_9allocatorIcEEEERNS7_IS9_EEE8capacityEv
FN:91,_ZNKSt3__114__split_bufferIhRNS_9allocatorIhEEE8capacityEv
FN:91,_ZNKSt3__114__split_bufferINS_12basic_stringIcNS_11char_traitsIcEENS_9allocatorIcEEEERNS4_IS6_EEE8capacityEv
FN:91,_ZNKSt3__114__split_bufferI6OpcodeRNS_9allocatorIS1_EEE8capacityEv
FN:140,_ZNSt3__114__split_bufferINS_12basic_stringIcNS_11char_traitsIcEENS_9allocatorIcEEEERNS4_IS6_EEE17__destruct_at_endEPS6_
FN:140,_ZNSt3__114__split_bufferIhRNS_9allocatorIhEEE17__destruct_at_endEPh
FN:140,_ZNSt3__114__split_bufferIN5boost2io6detail11format_itemIcNS_11char_traitsIcEENS_9allocatorIcEEEERNS7_IS9_EEE17__destruct_at_endEPS9_
FN:140,_ZNSt3__114__split_bufferI6OpcodeRNS_9allocatorIS1_EEE17__destruct_at_endEPS1_
FN:217,_ZNSt3__114__split_bufferIN5boost2io6detail11format_itemIcNS_11char_traitsIcEENS_9allocatorIcEEEERNS7_IS9_EEE18__construct_at_endEmRKS9_
FN:293,_ZNSt3__114__split_bufferIhRNS_9allocatorIhEEE17__destruct_at_endEPhNS_17integral_constantIbLb0EEE
FN:293,_ZNSt3__114__split_bufferIN5boost2io6detail11format_itemIcNS_11char_traitsIcEENS_9allocatorIcEEEERNS7_IS9_EEE17__destruct_at_endEPS9_NS_17integral_constantIbLb0EEE
FN:293,_ZNSt3__114__split_bufferI6OpcodeRNS_9allocatorIS1_EEE17__destruct_at_endEPS1_NS_17integral_constantIbLb0EEE
FN:293,_ZNSt3__114__split_bufferINS_12basic_stringIcNS_11char_traitsIcEENS_9allocatorIcEEEERNS4_IS6_EEE17__destruct_at_endEPS6_NS_17integral_constantIbLb0EEE
FN:308,_ZNSt3__114__split_bufferINS_12basic_stringIcNS_11char_traitsIcEENS_9allocatorIcEEEERNS4_IS6_EEEC1EmmS8_
FN:308,_ZNSt3__114__split_bufferI6OpcodeRNS_9allocatorIS1_EEEC1EmmS4_
FN:308,_ZNSt3__114__split_bufferIN5boost2io6detail11format_itemIcNS_11char_traitsIcEENS_9allocatorIcEEEERNS7_IS9_EEEC1EmmSB_
FN:308,_ZNSt3__114__split_bufferIhRNS_9allocatorIhEEEC2EmmS3_
FN:308,_ZNSt3__114__split_bufferINS_12basic_stringIcNS_11char_traitsIcEENS_9allocatorIcEEEERNS4_IS6_EEEC2EmmS8_
FN:308,_ZNSt3__114__split_bufferI6OpcodeRNS_9allocatorIS1_EEEC2EmmS4_
FN:308,_ZNSt3__114__split_bufferIN5boost2io6detail11format_itemIcNS_11char_traitsIcEENS_9allocatorIcEEEERNS7_IS9_EEEC2EmmSB_
FN:308,_ZNSt3__114__split_bufferIhRNS_9allocatorIhEEEC1EmmS3_
FN:339,_ZNSt3__114__split_bufferINS_12basic_stringIcNS_11char_traitsIcEENS_9allocatorIcEEEERNS4_IS6_EEED2Ev
FN:339,_ZNSt3__114__split_bufferIN5boost2io6detail11format_itemIcNS_11char_traitsIcEENS_9allocatorIcEEEERNS7_IS9_EEED1Ev
FN:339,_ZNSt3__114__split_bufferINS_12basic_stringIcNS_11char_traitsIcEENS_9allocatorIcEEEERNS4_IS6_EEED1Ev
FN:339,_ZNSt3__114__split_bufferI6OpcodeRNS_9allocatorIS1_EEED1Ev
FN:339,_ZNSt3__114__split_bufferIhRNS_9allocatorIhEEED1Ev
FN:339,_ZNSt3__114__split_bufferIhRNS_9allocatorIhEEED2Ev
FN:339,_ZNSt3__114__split_bufferI6OpcodeRNS_9allocatorIS1_EEED2Ev
FN:339,_ZNSt3__114__split_bufferIN5boost2io6detail11format_itemIcNS_11char_traitsIcEENS_9allocatorIcEEEERNS7_IS9_EEED2Ev
FNDA:1188,_ZNSt3__114__split_bufferI6OpcodeRNS_9allocatorIS1_EEED2Ev
FNDA:0,_ZNSt3__114__split_bufferIhRNS_9allocatorIhEEE17__destruct_at_endEPh
FNDA:0,_ZNSt3__114__split_bufferIN5boost2io6detail11format_itemIcNS_11char_traitsIcEENS_9allocatorIcEEEERNS7_IS9_EEEC2EmmSB_
FNDA:135168,_ZNSt3__114__split_bufferINS_12basic_stringIcNS_11char_traitsIcEENS_9allocatorIcEEEERNS4_IS6_EEE17__destruct_at_endEPS6_NS_17integral_constantIbLb0EEE
FNDA:101376,_ZNKSt3__114__split_bufferINS_12basic_stringIcNS_11char_traitsIcEENS_9allocatorIcEEEERNS4_IS6_EEE8capacityEv
FNDA:0,_ZNSt3__114__split_bufferIN5boost2io6detail11format_itemIcNS_11char_traitsIcEENS_9allocatorIcEEEERNS7_IS9_EEED2Ev
FNDA:0,_ZNSt3__114__split_bufferIN5boost2io6detail11format_itemIcNS_11char_traitsIcEENS_9allocatorIcEEEERNS7_IS9_EEE18__construct_at_endEmRKS9_
FNDA:35904,_ZNSt3__114__split_bufferI6OpcodeRNS_9allocatorIS1_EEE7__allocEv
FNDA:270336,_ZNSt3__114__split_bufferINS_12basic_stringIcNS_11char_traitsIcEENS_9allocatorIcEEEERNS4_IS6_EEE9__end_capEv
FNDA:0,_ZNSt3__114__split_bufferIhRNS_9allocatorIhEEE7__allocEv
FNDA:0,_ZNSt3__114__split_bufferIN5boost2io6detail11format_itemIcNS_11char_traitsIcEENS_9allocatorIcEEEERNS7_IS9_EEE5clearEv
FNDA:0,_ZNSt3__114__split_bufferIN5boost2io6detail11format_itemIcNS_11char_traitsIcEENS_9allocatorIcEEEERNS7_IS9_EEE17__destruct_at_endEPS9_
FNDA:1188,_ZNSt3__114__split_bufferI6OpcodeRNS_9allocatorIS1_EEE17__destruct_at_endEPS1_
FNDA:0,_ZNSt3__114__split_bufferIhRNS_9allocatorIhEEEC1EmmS3_
FNDA:1056,_ZNKSt3__114__split_bufferI6OpcodeRNS_9allocatorIS1_EEE8capacityEv
FNDA:0,_ZNSt3__114__split_bufferIN5boost2io6detail11format_itemIcNS_11char_traitsIcEENS_9allocatorIcEEEERNS7_IS9_EEE7__allocEv
FNDA:1188,_ZNSt3__114__split_bufferI6OpcodeRNS_9allocatorIS1_EEED1Ev
FNDA:0,_ZNSt3__114__split_bufferIN5boost2io6detail11format_itemIcNS_11char_traitsIcEENS_9allocatorIcEEEERNS7_IS9_EEE17__destruct_at_endEPS9_NS_17integral_constantIbLb0EEE
FNDA:101376,_ZNKSt3__114__split_bufferINS_12basic_stringIcNS_11char_traitsIcEENS_9allocatorIcEEEERNS4_IS6_EEE9__end_capEv
FNDA:0,_ZNKSt3__114__split_bufferIN5boost2io6detail11format_itemIcNS_11char_traitsIcEENS_9allocatorIcEEEERNS7_IS9_EEE9__end_capEv
FNDA:0,_ZNSt3__114__split_bufferIhRNS_9allocatorIhEEE9__end_capEv
FNDA:135168,_ZNSt3__114__split_bufferINS_12basic_stringIcNS_11char_traitsIcEENS_9allocatorIcEEEERNS4_IS6_EEE5clearEv
FNDA:1188,_ZNSt3__114__split_bufferI6OpcodeRNS_9allocatorIS1_EEE17__destruct_at_endEPS1_NS_17integral_constantIbLb0EEE
FNDA:0,_ZNSt3__114__split_bufferIhRNS_9allocatorIhEEED1Ev
FNDA:0,_ZNSt3__114__split_bufferIhRNS_9allocatorIhEEED2Ev
FNDA:0,_ZNKSt3__114__split_bufferIhRNS_9allocatorIhEEE8capacityEv
FNDA:1056,_ZNKSt3__114__split_bufferI6OpcodeRNS_9allocatorIS1_EEE9__end_capEv
FNDA:0,_ZNSt3__114__split_bufferIN5boost2io6detail11format_itemIcNS_11char_traitsIcEENS_9allocatorIcEEEERNS7_IS9_EEE9__end_capEv
FNDA:135168,_ZNSt3__114__split_bufferINS_12basic_stringIcNS_11char_traitsIcEENS_9allocatorIcEEEERNS4_IS6_EEED1Ev
FNDA:1188,_ZNSt3__114__split_bufferI6OpcodeRNS_9allocatorIS1_EEEC2EmmS4_
FNDA:0,_ZNSt3__114__split_bufferIhRNS_9allocatorIhEEE17__destruct_at_endEPhNS_17integral_constantIbLb0EEE
FNDA:473088,_ZNSt3__114__split_bufferINS_12basic_stringIcNS_11char_traitsIcEENS_9allocatorIcEEEERNS4_IS6_EEE7__allocEv
FNDA:135168,_ZNSt3__114__split_bufferINS_12basic_stringIcNS_11char_traitsIcEENS_9allocatorIcEEEERNS4_IS6_EEE17__destruct_at_endEPS6_
FNDA:2376,_ZNSt3__114__split_bufferI6OpcodeRNS_9allocatorIS1_EEE9__end_capEv
FNDA:0,_ZNKSt3__114__split_bufferIN5boost2io6detail11format_itemIcNS_11char_traitsIcEENS_9allocatorIcEEEERNS7_IS9_EEE8capacityEv
FNDA:135168,_ZNSt3__114__split_bufferINS_12basic_stringIcNS_11char_traitsIcEENS_9allocatorIcEEEERNS4_IS6_EEED2Ev
FNDA:135168,_ZNSt3__114__split_bufferINS_12basic_stringIcNS_11char_traitsIcEENS_9allocatorIcEEEERNS4_IS6_EEEC1EmmS8_
FNDA:0,_ZNSt3__114__split_bufferIhRNS_9allocatorIhEEE5clearEv
FNDA:0,_ZNKSt3__114__split_bufferIhRNS_9allocatorIhEEE9__end_capEv
FNDA:0,_ZNSt3__114__split_bufferIN5boost2io6detail11format_itemIcNS_11char_traitsIcEENS_9allocatorIcEEEERNS7_IS9_EEEC1EmmSB_
FNDA:1188,_ZNSt3__114__split_bufferI6OpcodeRNS_9allocatorIS1_EEEC1EmmS4_
FNDA:0,_ZNSt3__114__split_bufferIN5boost2io6detail11format_itemIcNS_11char_traitsIcEENS_9allocatorIcEEEERNS7_IS9_EEED1Ev
FNDA:1188,_ZNSt3__114__split_bufferI6OpcodeRNS_9allocatorIS1_EEE5clearEv
FNDA:0,_ZNSt3__114__split_bufferIhRNS_9allocatorIhEEEC2EmmS3_
FNDA:135168,_ZNSt3__114__split_bufferINS_12basic_stringIcNS_11char_traitsIcEENS_9allocatorIcEEEERNS4_IS6_EEEC2EmmS8_
FNF:45
FNH:22
DA:56,508992
DA:58,272712
DA:59,102432
DA:87,136356
DA:88,136356
DA:91,102432
DA:140,136356
DA:141,136356
DA:217,0
DA:219,0
DA:220,0
DA:222,0
DA:223,0
DA:224,0
DA:225,0
DA:226,0
DA:293,136356
DA:295,406560
DA:296,270204
DA:297,136356
DA:308,272712
DA:309,136356
DA:310,272712
DA:311,136356
DA:312,136356
DA:313,136356
DA:314,272712
DA:339,272712
DA:340,136356
DA:341,136356
DA:342,136356
DA:343,102432
DA:344,272712
LF:33
LH:25
end_of_record
TN:
SF:/Applications/Xcode.app/Contents/Developer/Toolchains/XcodeDefault.xctoolchain/usr/include/c++/v1/__string
FN:209,_ZNSt3__111char_traitsIcE6assignERcRKc
FN:210,_ZNSt3__111char_traitsIcE2eqEcc
FN:218,_ZNSt3__111char_traitsIcE6lengthEPKc
FN:223,_ZNSt3__111char_traitsIcE4copyEPcPKcm
FN:231,_ZNSt3__111char_traitsIcE7not_eofEi
FN:233,_ZNSt3__111char_traitsIcE12to_char_typeEi
FN:235,_ZNSt3__111char_traitsIcE11to_int_typeEc
FN:237,_ZNSt3__111char_traitsIcE11eq_int_typeEii
FN:239,_ZNSt3__111char_traitsIcE3eofEv
FNDA:1489356,_ZNSt3__111char_traitsIcE6assignERcRKc
FNDA:0,_ZNSt3__111char_traitsIcE7not_eofEi
FNDA:1461504,_ZNSt3__111char_traitsIcE11to_int_typeEc
FNDA:1461504,_ZNSt3__111char_traitsIcE12to_char_typeEi
FNDA:1468008,_ZNSt3__111char_traitsIcE3eofEv
FNDA:0,_ZNSt3__111char_traitsIcE4copyEPcPKcm
FNDA:36711,_ZNSt3__111char_traitsIcE6lengthEPKc
FNDA:1461636,_ZNSt3__111char_traitsIcE11eq_int_typeEii
FNDA:1461504,_ZNSt3__111char_traitsIcE2eqEcc
FNF:9
FNH:7
DA:209,1489356
DA:210,1461504
DA:211,1461504
DA:218,36711
DA:223,0
DA:226,0
DA:231,0
DA:232,0
DA:233,1461504
DA:234,1461504
DA:235,1461504
DA:236,1461504
DA:237,1461636
DA:238,1461636
DA:239,1468008
DA:240,1468008
LF:16
LH:12
end_of_record
TN:
SF:/Applications/Xcode.app/Contents/Developer/Toolchains/XcodeDefault.xctoolchain/usr/include/c++/v1/__tree
FN:73,_ZNSt3__1L20__tree_is_left_childIPNS_16__tree_node_baseIPvEEEEbT_
FN:227,_ZNSt3__118__tree_left_rotateIPNS_16__tree_node_baseIPvEEEEvT_
FN:247,_ZNSt3__119__tree_right_rotateIPNS_16__tree_node_baseIPvEEEEvT_
FN:272,_ZNSt3__127__tree_balance_after_insertIPNS_16__tree_node_baseIPvEEEEvT_S5_
FN:590,_ZNSt3__122__tree_key_value_typesINS_12__value_typeIPKN5boost6system14error_categoryENS_10unique_ptrINS3_6detail12std_categoryENS_14default_deleteIS9_EEEEEEE9__get_keyINS_4pairIKS6_SC_EEEENS_9enable_ifIXsr17__is_same_uncvrefIT_SI_EE5valueERSH_E4typeERSK_
FN:609,_ZNSt3__122__tree_key_value_typesINS_12__value_typeIPKN5boost6system14error_categoryENS_10unique_ptrINS3_6detail12std_categoryENS_14default_deleteIS9_EEEEEEE9__get_ptrERSD_
FN:713,_ZNSt3__115__tree_end_nodeIPNS_16__tree_node_baseIPvEEEC1Ev
FN:713,_ZNSt3__115__tree_end_nodeIPNS_16__tree_node_baseIPvEEEC2Ev
FN:731,_ZNKSt3__116__tree_node_baseIPvE15__parent_unsafeEv
FN:734,_ZNSt3__116__tree_node_baseIPvE12__set_parentEPS2_
FN:778,_ZNSt3__122__tree_node_destructorINS_9allocatorINS_11__tree_nodeINS_12__value_typeIPKN5boost6system14error_categoryENS_10unique_ptrINS5_6detail12std_categoryENS_14default_deleteISB_EEEEEEPvEEEEEC1ERSI_b
FN:778,_ZNSt3__122__tree_node_destructorINS_9allocatorINS_11__tree_nodeINS_12__value_typeIPKN5boost6system14error_categoryENS_10unique_ptrINS5_6detail12std_categoryENS_14default_deleteISB_EEEEEEPvEEEEEC2ERSI_b
FN:784,_ZNSt3__122__tree_node_destructorINS_9allocatorINS_11__tree_nodeINS_12__value_typeIPKN5boost6system14error_categoryENS_10unique_ptrINS5_6detail12std_categoryENS_14default_deleteISB_EEEEEEPvEEEEEclEPSH_
FN:831,_ZNKSt3__115__tree_iteratorINS_12__value_typeIPKN5boost6system14error_categoryENS_10unique_ptrINS3_6detail12std_categoryENS_14default_deleteIS9_EEEEEEPNS_11__tree_nodeISD_PvEElEdeEv
FN:833,_ZNKSt3__115__tree_iteratorINS_12__value_typeIPKN5boost6system14error_categoryENS_10unique_ptrINS3_6detail12std_categoryENS_14default_deleteIS9_EEEEEEPNS_11__tree_nodeISD_PvEElEptEv
FN:857,_ZNSt3__1eqERKNS_15__tree_iteratorINS_12__value_typeIPKN5boost6system14error_categoryENS_10unique_ptrINS3_6detail12std_categoryENS_14default_deleteIS9_EEEEEEPNS_11__tree_nodeISD_PvEElEESK_
FN:860,_ZNSt3__1neERKNS_15__tree_iteratorINS_12__value_typeIPKN5boost6system14error_categoryENS_10unique_ptrINS3_6detail12std_categoryENS_14default_deleteIS9_EEEEEEPNS_11__tree_nodeISD_PvEElEESK_
FN:865,_ZNSt3__115__tree_iteratorINS_12__value_typeIPKN5boost6system14error_categoryENS_10unique_ptrINS3_6detail12std_categoryENS_14default_deleteIS9_EEEEEEPNS_11__tree_nodeISD_PvEElEC2ESH_
FN:865,_ZNSt3__115__tree_iteratorINS_12__value_typeIPKN5boost6system14error_categoryENS_10unique_ptrINS3_6detail12std_categoryENS_14default_deleteIS9_EEEEEEPNS_11__tree_nodeISD_PvEElEC1ESH_
FN:867,_ZNSt3__115__tree_iteratorINS_12__value_typeIPKN5boost6system14error_categoryENS_10unique_ptrINS3_6detail12std_categoryENS_14default_deleteIS9_EEEEEEPNS_11__tree_nodeISD_PvEElEC1EPNS_15__tree_end_nodeIPNS_16__tree_node_baseISF_EEEE
FN:867,_ZNSt3__115__tree_iteratorINS_12__value_typeIPKN5boost6system14error_categoryENS_10unique_ptrINS3_6detail12std_categoryENS_14default_deleteIS9_EEEEEEPNS_11__tree_nodeISD_PvEElEC2EPNS_15__tree_end_nodeIPNS_16__tree_node_baseISF_EEEE
FN:869,_ZNKSt3__115__tree_iteratorINS_12__value_typeIPKN5boost6system14error_categoryENS_10unique_ptrINS3_6detail12std_categoryENS_14default_deleteIS9_EEEEEEPNS_11__tree_nodeISD_PvEElE8__get_npEv
FN:1032,_ZNSt3__16__treeINS_12__value_typeIPKN5boost6system14error_categoryENS_10unique_ptrINS3_6detail12std_categoryENS_14default_deleteIS9_EEEEEENS_19__map_value_compareIS6_SD_NS8_12cat_ptr_lessELb1EEENS_9allocatorISD_EEE10__end_nodeEv
FN:1039,_ZNKSt3__16__treeINS_12__value_typeIPKN5boost6system14error_categoryENS_10unique_ptrINS3_6detail12std_categoryENS_14default_deleteIS9_EEEEEENS_19__map_value_compareIS6_SD_NS8_12cat_ptr_lessELb1EEENS_9allocatorISD_EEE10__end_nodeEv
FN:1048,_ZNSt3__16__treeINS_12__value_typeIPKN5boost6system14error_categoryENS_10unique_ptrINS3_6detail12std_categoryENS_14default_deleteIS9_EEEEEENS_19__map_value_compareIS6_SD_NS8_12cat_ptr_lessELb1EEENS_9allocatorISD_EEE12__node_allocEv
FN:1054,_ZNSt3__16__treeINS_12__value_typeIPKN5boost6system14error_categoryENS_10unique_ptrINS3_6detail12std_categoryENS_14default_deleteIS9_EEEEEENS_19__map_value_compareIS6_SD_NS8_12cat_ptr_lessELb1EEENS_9allocatorISD_EEE12__begin_nodeEv
FN:1063,_ZNSt3__16__treeINS_12__value_typeIPKN5boost6system14error_categoryENS_10unique_ptrINS3_6detail12std_categoryENS_14default_deleteIS9_EEEEEENS_19__map_value_compareIS6_SD_NS8_12cat_ptr_lessELb1EEENS_9allocatorISD_EEE4sizeEv
FN:1068,_ZNSt3__16__treeINS_12__value_typeIPKN5boost6system14error_categoryENS_10unique_ptrINS3_6detail12std_categoryENS_14default_deleteIS9_EEEEEENS_19__map_value_compareIS6_SD_NS8_12cat_ptr_lessELb1EEENS_9allocatorISD_EEE10value_compEv
FN:1075,_ZNKSt3__16__treeINS_12__value_typeIPKN5boost6system14error_categoryENS_10unique_ptrINS3_6detail12std_categoryENS_14default_deleteIS9_EEEEEENS_19__map_value_compareIS6_SD_NS8_12cat_ptr_lessELb1EEENS_9allocatorISD_EEE6__rootEv
FN:1078,_ZNKSt3__16__treeINS_12__value_typeIPKN5boost6system14error_categoryENS_10unique_ptrINS3_6detail12std_categoryENS_14default_deleteIS9_EEEEEENS_19__map_value_compareIS6_SD_NS8_12cat_ptr_lessELb1EEENS_9allocatorISD_EEE10__root_ptrEv
FN:1117,_ZNSt3__16__treeINS_12__value_typeIPKN5boost6system14error_categoryENS_10unique_ptrINS3_6detail12std_categoryENS_14default_deleteIS9_EEEEEENS_19__map_value_compareIS6_SD_NS8_12cat_ptr_lessELb1EEENS_9allocatorISD_EEE3endEv
FN:1275,_ZNSt3__16__treeINS_12__value_typeIPKN5boost6system14error_categoryENS_10unique_ptrINS3_6detail12std_categoryENS_14default_deleteIS9_EEEEEENS_19__map_value_compareIS6_SD_NS8_12cat_ptr_lessELb1EEENS_9allocatorISD_EEE15__insert_uniqueEONS_4pairIKS6_SC_EE
FN:1520,_ZNSt3__16__treeINS_12__value_typeIPKN5boost6system14error_categoryENS_10unique_ptrINS3_6detail12std_categoryENS_14default_deleteIS9_EEEEEENS_19__map_value_compareIS6_SD_NS8_12cat_ptr_lessELb1EEENS_9allocatorISD_EEEC1ERKSG_
FN:1520,_ZNSt3__16__treeINS_12__value_typeIPKN5boost6system14error_categoryENS_10unique_ptrINS3_6detail12std_categoryENS_14default_deleteIS9_EEEEEENS_19__map_value_compareIS6_SD_NS8_12cat_ptr_lessELb1EEENS_9allocatorISD_EEEC2ERKSG_
FN:1838,_ZNSt3__16__treeINS_12__value_typeIPKN5boost6system14error_categoryENS_10unique_ptrINS3_6detail12std_categoryENS_14default_deleteIS9_EEEEEENS_19__map_value_compareIS6_SD_NS8_12cat_ptr_lessELb1EEENS_9allocatorISD_EEED2Ev
FN:1838,_ZNSt3__16__treeINS_12__value_typeIPKN5boost6system14error_categoryENS_10unique_ptrINS3_6detail12std_categoryENS_14default_deleteIS9_EEEEEENS_19__map_value_compareIS6_SD_NS8_12cat_ptr_lessELb1EEENS_9allocatorISD_EEED1Ev
FN:1847,_ZNSt3__16__treeINS_12__value_typeIPKN5boost6system14error_categoryENS_10unique_ptrINS3_6detail12std_categoryENS_14default_deleteIS9_EEEEEENS_19__map_value_compareIS6_SD_NS8_12cat_ptr_lessELb1EEENS_9allocatorISD_EEE7destroyEPNS_11__tree_nodeISD_PvEE
FN:2019,_ZNSt3__16__treeINS_12__value_typeIPKN5boost6system14error_categoryENS_10unique_ptrINS3_6detail12std_categoryENS_14default_deleteIS9_EEEEEENS_19__map_value_compareIS6_SD_NS8_12cat_ptr_lessELb1EEENS_9allocatorISD_EEE12__find_equalIS6_EERPNS_16__tree_node_baseIPvEERPNS_15__tree_end_nodeISO_EERKT_
FN:2123,_ZNSt3__16__treeINS_12__value_typeIPKN5boost6system14error_categoryENS_10unique_ptrINS3_6detail12std_categoryENS_14default_deleteIS9_EEEEEENS_19__map_value_compareIS6_SD_NS8_12cat_ptr_lessELb1EEENS_9allocatorISD_EEE16__insert_node_atEPNS_15__tree_end_nodeIPNS_16__tree_node_baseIPvEEEERSO_SO_
FN:2142,_ZNSt3__16__treeINS_12__value_typeIPKN5boost6system14error_categoryENS_10unique_ptrINS3_6detail12std_categoryENS_14default_deleteIS9_EEEEEENS_19__map_value_compareIS6_SD_NS8_12cat_ptr_lessELb1EEENS_9allocatorISD_EEE25__emplace_unique_key_argsIS6_JNS_4pairIKS6_SC_EEEEENSL_INS_15__tree_iteratorISD_PNS_11__tree_nodeISD_PvEElEEbEERKT_DpOT0_
FN:2206,_ZNSt3__16__treeINS_12__value_typeIPKN5boost6system14error_categoryENS_10unique_ptrINS3_6detail12std_categoryENS_14default_deleteIS9_EEEEEENS_19__map_value_compareIS6_SD_NS8_12cat_ptr_lessELb1EEENS_9allocatorISD_EEE16__construct_nodeIJNS_4pairIKS6_SC_EEEEENS7_INS_11__tree_nodeISD_PvEENS_22__tree_node_destructorINSH_ISQ_EEEEEEDpOT_
FN:2597,_ZNSt3__16__treeINS_12__value_typeIPKN5boost6system14error_categoryENS_10unique_ptrINS3_6detail12std_categoryENS_14default_deleteIS9_EEEEEENS_19__map_value_compareIS6_SD_NS8_12cat_ptr_lessELb1EEENS_9allocatorISD_EEE4findIS6_EENS_15__tree_iteratorISD_PNS_11__tree_nodeISD_PvEElEERKT_
FN:2664,_ZNSt3__16__treeINS_12__value_typeIPKN5boost6system14error_categoryENS_10unique_ptrINS3_6detail12std_categoryENS_14default_deleteIS9_EEEEEENS_19__map_value_compareIS6_SD_NS8_12cat_ptr_lessELb1EEENS_9allocatorISD_EEE13__lower_boundIS6_EENS_15__tree_iteratorISD_PNS_11__tree_nodeISD_PvEElEERKT_SP_PNS_15__tree_end_nodeIPNS_16__tree_node_baseISN_EEEE
FNDA:0,_ZNSt3__16__treeINS_12__value_typeIPKN5boost6system14error_categoryENS_10unique_ptrINS3_6detail12std_categoryENS_14default_deleteIS9_EEEEEENS_19__map_value_compareIS6_SD_NS8_12cat_ptr_lessELb1EEENS_9allocatorISD_EEE10value_compEv
FNDA:0,_ZNKSt3__16__treeINS_12__value_typeIPKN5boost6system14error_categoryENS_10unique_ptrINS3_6detail12std_categoryENS_14default_deleteIS9_EEEEEENS_19__map_value_compareIS6_SD_NS8_12cat_ptr_lessELb1EEENS_9allocatorISD_EEE6__rootEv
FNDA:0,_ZNKSt3__16__treeINS_12__value_typeIPKN5boost6system14error_categoryENS_10unique_ptrINS3_6detail12std_categoryENS_14default_deleteIS9_EEEEEENS_19__map_value_compareIS6_SD_NS8_12cat_ptr_lessELb1EEENS_9allocatorISD_EEE10__end_nodeEv
FNDA:0,_ZNSt3__16__treeINS_12__value_typeIPKN5boost6system14error_categoryENS_10unique_ptrINS3_6detail12std_categoryENS_14default_deleteIS9_EEEEEENS_19__map_value_compareIS6_SD_NS8_12cat_ptr_lessELb1EEENS_9allocatorISD_EEEC1ERKSG_
FNDA:0,_ZNSt3__115__tree_end_nodeIPNS_16__tree_node_baseIPvEEEC1Ev
FNDA:0,_ZNSt3__1neERKNS_15__tree_iteratorINS_12__value_typeIPKN5boost6system14error_categoryENS_10unique_ptrINS3_6detail12std_categoryENS_14default_deleteIS9_EEEEEEPNS_11__tree_nodeISD_PvEElEESK_
FNDA:0,_ZNSt3__16__treeINS_12__value_typeIPKN5boost6system14error_categoryENS_10unique_ptrINS3_6detail12std_categoryENS_14default_deleteIS9_EEEEEENS_19__map_value_compareIS6_SD_NS8_12cat_ptr_lessELb1EEENS_9allocatorISD_EEE4sizeEv
FNDA:0,_ZNSt3__115__tree_iteratorINS_12__value_typeIPKN5boost6system14error_categoryENS_10unique_ptrINS3_6detail12std_categoryENS_14default_deleteIS9_EEEEEEPNS_11__tree_nodeISD_PvEElEC2ESH_
FNDA:0,_ZNSt3__122__tree_key_value_typesINS_12__value_typeIPKN5boost6system14error_categoryENS_10unique_ptrINS3_6detail12std_categoryENS_14default_deleteIS9_EEEEEEE9__get_ptrERSD_
FNDA:0,_ZNSt3__16__treeINS_12__value_typeIPKN5boost6system14error_categoryENS_10unique_ptrINS3_6detail12std_categoryENS_14default_deleteIS9_EEEEEENS_19__map_value_compareIS6_SD_NS8_12cat_ptr_lessELb1EEENS_9allocatorISD_EEE4findIS6_EENS_15__tree_iteratorISD_PNS_11__tree_nodeISD_PvEElEERKT_
FNDA:0,_ZNSt3__122__tree_node_destructorINS_9allocatorINS_11__tree_nodeINS_12__value_typeIPKN5boost6system14error_categoryENS_10unique_ptrINS5_6detail12std_categoryENS_14default_deleteISB_EEEEEEPvEEEEEclEPSH_
FNDA:0,_ZNSt3__122__tree_key_value_typesINS_12__value_typeIPKN5boost6system14error_categoryENS_10unique_ptrINS3_6detail12std_categoryENS_14default_deleteIS9_EEEEEEE9__get_keyINS_4pairIKS6_SC_EEEENS_9enable_ifIXsr17__is_same_uncvrefIT_SI_EE5valueERSH_E4typeERSK_
FNDA:0,_ZNSt3__16__treeINS_12__value_typeIPKN5boost6system14error_categoryENS_10unique_ptrINS3_6detail12std_categoryENS_14default_deleteIS9_EEEEEENS_19__map_value_compareIS6_SD_NS8_12cat_ptr_lessELb1EEENS_9allocatorISD_EEE7destroyEPNS_11__tree_nodeISD_PvEE
FNDA:0,_ZNSt3__16__treeINS_12__value_typeIPKN5boost6system14error_categoryENS_10unique_ptrINS3_6detail12std_categoryENS_14default_deleteIS9_EEEEEENS_19__map_value_compareIS6_SD_NS8_12cat_ptr_lessELb1EEENS_9allocatorISD_EEE12__find_equalIS6_EERPNS_16__tree_node_baseIPvEERPNS_15__tree_end_nodeISO_EERKT_
FNDA:0,_ZNSt3__115__tree_iteratorINS_12__value_typeIPKN5boost6system14error_categoryENS_10unique_ptrINS3_6detail12std_categoryENS_14default_deleteIS9_EEEEEEPNS_11__tree_nodeISD_PvEElEC1EPNS_15__tree_end_nodeIPNS_16__tree_node_baseISF_EEEE
FNDA:0,_ZNSt3__127__tree_balance_after_insertIPNS_16__tree_node_baseIPvEEEEvT_S5_
FNDA:0,_ZNSt3__1L20__tree_is_left_childIPNS_16__tree_node_baseIPvEEEEbT_
FNDA:0,_ZNSt3__16__treeINS_12__value_typeIPKN5boost6system14error_categoryENS_10unique_ptrINS3_6detail12std_categoryENS_14default_deleteIS9_EEEEEENS_19__map_value_compareIS6_SD_NS8_12cat_ptr_lessELb1EEENS_9allocatorISD_EEE25__emplace_unique_key_argsIS6_JNS_4pairIKS6_SC_EEEEENSL_INS_15__tree_iteratorISD_PNS_11__tree_nodeISD_PvEElEEbEERKT_DpOT0_
FNDA:0,_ZNSt3__122__tree_node_destructorINS_9allocatorINS_11__tree_nodeINS_12__value_typeIPKN5boost6system14error_categoryENS_10unique_ptrINS5_6detail12std_categoryENS_14default_deleteISB_EEEEEEPvEEEEEC1ERSI_b
FNDA:0,_ZNKSt3__115__tree_iteratorINS_12__value_typeIPKN5boost6system14error_categoryENS_10unique_ptrINS3_6detail12std_categoryENS_14default_deleteIS9_EEEEEEPNS_11__tree_nodeISD_PvEElE8__get_npEv
FNDA:0,_ZNKSt3__116__tree_node_baseIPvE15__parent_unsafeEv
FNDA:0,_ZNSt3__118__tree_left_rotateIPNS_16__tree_node_baseIPvEEEEvT_
FNDA:0,_ZNSt3__16__treeINS_12__value_typeIPKN5boost6system14error_categoryENS_10unique_ptrINS3_6detail12std_categoryENS_14default_deleteIS9_EEEEEENS_19__map_value_compareIS6_SD_NS8_12cat_ptr_lessELb1EEENS_9allocatorISD_EEE13__lower_boundIS6_EENS_15__tree_iteratorISD_PNS_11__tree_nodeISD_PvEElEERKT_SP_PNS_15__tree_end_nodeIPNS_16__tree_node_baseISN_EEEE
FNDA:0,_ZNSt3__16__treeINS_12__value_typeIPKN5boost6system14error_categoryENS_10unique_ptrINS3_6detail12std_categoryENS_14default_deleteIS9_EEEEEENS_19__map_value_compareIS6_SD_NS8_12cat_ptr_lessELb1EEENS_9allocatorISD_EEED2Ev
FNDA:0,_ZNSt3__1eqERKNS_15__tree_iteratorINS_12__value_typeIPKN5boost6system14error_categoryENS_10unique_ptrINS3_6detail12std_categoryENS_14default_deleteIS9_EEEEEEPNS_11__tree_nodeISD_PvEElEESK_
FNDA:0,_ZNSt3__16__treeINS_12__value_typeIPKN5boost6system14error_categoryENS_10unique_ptrINS3_6detail12std_categoryENS_14default_deleteIS9_EEEEEENS_19__map_value_compareIS6_SD_NS8_12cat_ptr_lessELb1EEENS_9allocatorISD_EEEC2ERKSG_
FNDA:0,_ZNSt3__16__treeINS_12__value_typeIPKN5boost6system14error_categoryENS_10unique_ptrINS3_6detail12std_categoryENS_14default_deleteIS9_EEEEEENS_19__map_value_compareIS6_SD_NS8_12cat_ptr_lessELb1EEENS_9allocatorISD_EEE16__insert_node_atEPNS_15__tree_end_nodeIPNS_16__tree_node_baseIPvEEEERSO_SO_
FNDA:0,_ZNSt3__115__tree_iteratorINS_12__value_typeIPKN5boost6system14error_categoryENS_10unique_ptrINS3_6detail12std_categoryENS_14default_deleteIS9_EEEEEEPNS_11__tree_nodeISD_PvEElEC2EPNS_15__tree_end_nodeIPNS_16__tree_node_baseISF_EEEE
FNDA:0,_ZNKSt3__115__tree_iteratorINS_12__value_typeIPKN5boost6system14error_categoryENS_10unique_ptrINS3_6detail12std_categoryENS_14default_deleteIS9_EEEEEEPNS_11__tree_nodeISD_PvEElEdeEv
FNDA:0,_ZNSt3__122__tree_node_destructorINS_9allocatorINS_11__tree_nodeINS_12__value_typeIPKN5boost6system14error_categoryENS_10unique_ptrINS5_6detail12std_categoryENS_14default_deleteISB_EEEEEEPvEEEEEC2ERSI_b
FNDA:0,_ZNSt3__16__treeINS_12__value_typeIPKN5boost6system14error_categoryENS_10unique_ptrINS3_6detail12std_categoryENS_14default_deleteIS9_EEEEEENS_19__map_value_compareIS6_SD_NS8_12cat_ptr_lessELb1EEENS_9allocatorISD_EEE12__node_allocEv
FNDA:0,_ZNSt3__16__treeINS_12__value_typeIPKN5boost6system14error_categoryENS_10unique_ptrINS3_6detail12std_categoryENS_14default_deleteIS9_EEEEEENS_19__map_value_compareIS6_SD_NS8_12cat_ptr_lessELb1EEENS_9allocatorISD_EEE16__construct_nodeIJNS_4pairIKS6_SC_EEEEENS7_INS_11__tree_nodeISD_PvEENS_22__tree_node_destructorINSH_ISQ_EEEEEEDpOT_
FNDA:0,_ZNSt3__16__treeINS_12__value_typeIPKN5boost6system14error_categoryENS_10unique_ptrINS3_6detail12std_categoryENS_14default_deleteIS9_EEEEEENS_19__map_value_compareIS6_SD_NS8_12cat_ptr_lessELb1EEENS_9allocatorISD_EEE12__begin_nodeEv
FNDA:0,_ZNSt3__16__treeINS_12__value_typeIPKN5boost6system14error_categoryENS_10unique_ptrINS3_6detail12std_categoryENS_14default_deleteIS9_EEEEEENS_19__map_value_compareIS6_SD_NS8_12cat_ptr_lessELb1EEENS_9allocatorISD_EEE3endEv
FNDA:0,_ZNSt3__115__tree_iteratorINS_12__value_typeIPKN5boost6system14error_categoryENS_10unique_ptrINS3_6detail12std_categoryENS_14default_deleteIS9_EEEEEEPNS_11__tree_nodeISD_PvEElEC1ESH_
FNDA:0,_ZNSt3__16__treeINS_12__value_typeIPKN5boost6system14error_categoryENS_10unique_ptrINS3_6detail12std_categoryENS_14default_deleteIS9_EEEEEENS_19__map_value_compareIS6_SD_NS8_12cat_ptr_lessELb1EEENS_9allocatorISD_EEED1Ev
FNDA:0,_ZNSt3__115__tree_end_nodeIPNS_16__tree_node_baseIPvEEEC2Ev
FNDA:0,_ZNSt3__119__tree_right_rotateIPNS_16__tree_node_baseIPvEEEEvT_
FNDA:0,_ZNSt3__16__treeINS_12__value_typeIPKN5boost6system14error_categoryENS_10unique_ptrINS3_6detail12std_categoryENS_14default_deleteIS9_EEEEEENS_19__map_value_compareIS6_SD_NS8_12cat_ptr_lessELb1EEENS_9allocatorISD_EEE15__insert_uniqueEONS_4pairIKS6_SC_EE
FNDA:0,_ZNKSt3__16__treeINS_12__value_typeIPKN5boost6system14error_categoryENS_10unique_ptrINS3_6detail12std_categoryENS_14default_deleteIS9_EEEEEENS_19__map_value_compareIS6_SD_NS8_12cat_ptr_lessELb1EEENS_9allocatorISD_EEE10__root_ptrEv
FNDA:0,_ZNSt3__116__tree_node_baseIPvE12__set_parentEPS2_
FNDA:0,_ZNSt3__16__treeINS_12__value_typeIPKN5boost6system14error_categoryENS_10unique_ptrINS3_6detail12std_categoryENS_14default_deleteIS9_EEEEEENS_19__map_value_compareIS6_SD_NS8_12cat_ptr_lessELb1EEENS_9allocatorISD_EEE10__end_nodeEv
FNDA:0,_ZNKSt3__115__tree_iteratorINS_12__value_typeIPKN5boost6system14error_categoryENS_10unique_ptrINS3_6detail12std_categoryENS_14default_deleteIS9_EEEEEEPNS_11__tree_nodeISD_PvEElEptEv
FNF:43
FNH:0
DA:73,0
DA:75,0
DA:227,0
DA:229,0
DA:230,0
DA:231,0
DA:232,0
DA:233,0
DA:234,0
DA:235,0
DA:237,0
DA:238,0
DA:239,0
DA:240,0
DA:247,0
DA:249,0
DA:250,0
DA:251,0
DA:252,0
DA:253,0
DA:254,0
DA:255,0
DA:257,0
DA:258,0
DA:259,0
DA:260,0
DA:272,0
DA:274,0
DA:275,0
DA:278,0
DA:280,0
DA:281,0
DA:283,0
DA:284,0
DA:285,0
DA:286,0
DA:287,0
DA:288,0
DA:291,0
DA:293,0
DA:294,0
DA:295,0
DA:296,0
DA:297,0
DA:298,0
DA:299,0
DA:300,0
DA:301,0
DA:303,0
DA:306,0
DA:307,0
DA:309,0
DA:310,0
DA:311,0
DA:312,0
DA:313,0
DA:314,0
DA:317,0
DA:319,0
DA:320,0
DA:321,0
DA:322,0
DA:323,0
DA:324,0
DA:325,0
DA:326,0
DA:327,0
DA:331,0
DA:590,0
DA:591,0
DA:609,0
DA:610,0
DA:713,0
DA:731,0
DA:734,0
DA:735,0
DA:736,0
DA:778,0
DA:779,0
DA:780,0
DA:781,0
DA:784,0
DA:786,0
DA:787,0
DA:788,0
DA:789,0
DA:790,0
DA:831,0
DA:832,0
DA:833,0
DA:834,0
DA:857,0
DA:858,0
DA:860,0
DA:861,0
DA:865,0
DA:867,0
DA:869,0
DA:1032,0
DA:1034,0
DA:1035,0
DA:1039,0
DA:1041,0
DA:1042,0
DA:1043,0
DA:1048,0
DA:1054,0
DA:1063,0
DA:1068,0
DA:1075,0
DA:1076,0
DA:1078,0
DA:1079,0
DA:1085,0
DA:1117,0
DA:1275,0
DA:1276,0
DA:1520,0
DA:1524,0
DA:1525,0
DA:1526,0
DA:1527,0
DA:1838,0
DA:1839,0
DA:1842,0
DA:1843,0
DA:1847,0
DA:1849,0
DA:1851,0
DA:1852,0
DA:1853,0
DA:1854,0
DA:1855,0
DA:1856,0
DA:1857,0
DA:2019,0
DA:2022,0
DA:2023,0
DA:2024,0
DA:2026,0
DA:2028,0
DA:2030,0
DA:2031,0
DA:2032,0
DA:2033,0
DA:2034,0
DA:2035,0
DA:2037,0
DA:2038,0
DA:2040,0
DA:2041,0
DA:2042,0
DA:2043,0
DA:2044,0
DA:2045,0
DA:2047,0
DA:2050,0
DA:2051,0
DA:2055,0
DA:2056,0
DA:2057,0
DA:2123,0
DA:2127,0
DA:2128,0
DA:2129,0
DA:2131,0
DA:2132,0
DA:2133,0
DA:2134,0
DA:2135,0
DA:2136,0
DA:2142,0
DA:2151,0
DA:2152,0
DA:2153,0
DA:2154,0
DA:2157,0
DA:2161,0
DA:2162,0
DA:2163,0
DA:2164,0
DA:2165,0
DA:2206,0
DA:2210,0
DA:2211,0
DA:2212,0
DA:2213,0
DA:2214,0
DA:2215,0
DA:2597,0
DA:2599,0
DA:2600,0
DA:2601,0
DA:2602,0
DA:2603,0
DA:2664,0
DA:2668,0
DA:2670,0
DA:2672,0
DA:2673,0
DA:2674,0
DA:2676,0
DA:2678,0
LF:203
LH:0
end_of_record
TN:
SF:/Applications/Xcode.app/Contents/Developer/Toolchains/XcodeDefault.xctoolchain/usr/include/c++/v1/algorithm
FN:679,_ZNKSt3__110__equal_toIccEclERKcS3_
FN:716,_ZNKSt3__16__lessImmEclERKmS3_
FN:716,_ZNKSt3__16__lessIPcS1_EclERKS1_S4_
FN:716,_ZNKSt3__16__lessIllEclERKlS3_
FN:716,_ZNKSt3__16__lessIccEclERKcS3_
FN:762,_ZNSt3__1L15__half_positiveIlEENS_9enable_ifIXsr11is_integralIT_EE5valueES2_E4typeES2_
FN:901,_ZNSt3__1L7find_ifINS_11__wrap_iterIPcEEN5boost9algorithm6detail10is_any_ofFIcEEEET_S9_S9_T0_
FN:1216,_ZNSt3__1L5equalINS_11__wrap_iterIPcEES3_NS_10__equal_toIccEEEEbT_S6_T0_T1_
FN:1227,_ZNSt3__1L5equalINS_11__wrap_iterIPcEES3_EEbT_S4_T0_
FN:1583,_ZNSt3__1L13__unwrap_iterIPcEET_S2_
FN:1583,_ZNSt3__1L13__unwrap_iterIPKcEET_S3_
FN:1609,_ZNSt3__1L13__unwrap_iterIhEENS_9enable_ifIXsr28is_trivially_copy_assignableIT_EE5valueEPS2_E4typeENS_11__wrap_iterIS3_EE
FN:1648,_ZNSt3__1L6__copyIKccEENS_9enable_ifIXaasr7is_sameINS_12remove_constIT_E4typeET0_EE5valuesr28is_trivially_copy_assignableIS7_EE5valueEPS7_E4typeEPS4_SB_S8_
FN:1648,_ZNSt3__1L6__copyIhhEENS_9enable_ifIXaasr7is_sameINS_12remove_constIT_E4typeET0_EE5valuesr28is_trivially_copy_assignableIS6_EE5valueEPS6_E4typeEPS3_SA_S7_
FN:1659,_ZNSt3__1L4copyINS_11__wrap_iterIPhEES3_EET0_T_S5_S4_
FN:1659,_ZNSt3__1L4copyIPKcPcEET0_T_S5_S4_
FN:1931,_ZNSt3__1L8__fill_nIPN5boost2io6detail11format_itemIcNS_11char_traitsIcEENS_9allocatorIcEEEEmS9_EET_SB_T0_RKT1_
FN:1941,_ZNSt3__1L6fill_nIPN5boost2io6detail11format_itemIcNS_11char_traitsIcEENS_9allocatorIcEEEEmS9_EET_SB_T0_RKT1_
FN:2454,_ZNSt3__1L3minIlNS_6__lessIllEEEERKT_S5_S5_T0_
FN:2454,_ZNSt3__1L3minImNS_6__lessImmEEEERKT_S5_S5_T0_
FN:2462,_ZNSt3__1L3minImEERKT_S3_S3_
FN:2462,_ZNSt3__1L3minIlEERKT_S3_S3_
FN:2521,_ZNSt3__1L3maxIlNS_6__lessIllEEEERKT_S5_S5_T0_
FN:2521,_ZNSt3__1L3maxIPcNS_6__lessIS1_S1_EEEERKT_S6_S6_T0_
FN:2521,_ZNSt3__1L3maxImNS_6__lessImmEEEERKT_S5_S5_T0_
FN:2529,_ZNSt3__1L3maxImEERKT_S3_S3_
FN:2529,_ZNSt3__1L3maxIlEERKT_S3_S3_
FN:2529,_ZNSt3__1L3maxIPcEERKT_S4_S4_
FN:2776,_ZNSt3__125__independent_bits_engineINS_23mersenne_twister_engineIjLm32ELm624ELm397ELm31ELj2567483615ELm11ELj4294967295ELm7ELj2636928640ELm15ELj4022730752ELm18ELj1812433253EEEjEclEv
FN:2785,_ZNSt3__125__independent_bits_engineINS_23mersenne_twister_engineIjLm32ELm624ELm397ELm31ELj2567483615ELm11ELj4294967295ELm7ELj2636928640ELm15ELj4022730752ELm18ELj1812433253EEEjEC1ERS2_m
FN:2785,_ZNSt3__125__independent_bits_engineINS_23mersenne_twister_engineIjLm32ELm624ELm397ELm31ELj2567483615ELm11ELj4294967295ELm7ELj2636928640ELm15ELj4022730752ELm18ELj1812433253EEEjEC2ERS2_m
FN:2821,_ZNSt3__125__independent_bits_engineINS_23mersenne_twister_engineIjLm32ELm624ELm397ELm31ELj2567483615ELm11ELj4294967295ELm7ELj2636928640ELm15ELj4022730752ELm18ELj1812433253EEEjE6__evalENS_17integral_constantIbLb0EEE
FN:2877,_ZNSt3__124uniform_int_distributionIiE10param_typeC1Eii
FN:2877,_ZNSt3__124uniform_int_distributionIiE10param_typeC2Eii
FN:2881,_ZNKSt3__124uniform_int_distributionIiE10param_type1aEv
FN:2882,_ZNKSt3__124uniform_int_distributionIiE10param_type1bEv
FN:2895,_ZNSt3__124uniform_int_distributionIiEC1Eii
FN:2895,_ZNSt3__124uniform_int_distributionIiEC2Eii
FN:2902,_ZNSt3__124uniform_int_distributionIiEclINS_23mersenne_twister_engineIjLm32ELm624ELm397ELm31ELj2567483615ELm11ELj4294967295ELm7ELj2636928640ELm15ELj4022730752ELm18ELj1812433253EEEEEiRT_
FN:2927,_ZNSt3__124uniform_int_distributionIiEclINS_23mersenne_twister_engineIjLm32ELm624ELm397ELm31ELj2567483615ELm11ELj4294967295ELm7ELj2636928640ELm15ELj4022730752ELm18ELj1812433253EEEEEiRT_RKNS1_10param_typeE
FN:4010,_ZNSt3__1L4sortIPcNS_6__lessIccEEEEvT_S4_T0_
FN:4025,_ZNSt3__1L4sortIPcEEvT_S2_
FN:4093,_ZNSt3__113__lower_boundIRNS_6__lessIccEEPKccEET0_S6_S6_RKT1_T_
FN:4238,_ZNSt3__1L15__binary_searchIRNS_6__lessIccEEPKccEEbT0_S6_RKT1_T_
FN:4247,_ZNSt3__1L13binary_searchIPKccNS_6__lessIccEEEEbT_S5_RKT0_T1_
FN:4262,_ZNSt3__1L13binary_searchIPKccEEbT_S3_RKT0_
FNDA:671,_ZNSt3__125__independent_bits_engineINS_23mersenne_twister_engineIjLm32ELm624ELm397ELm31ELj2567483615ELm11ELj4294967295ELm7ELj2636928640ELm15ELj4022730752ELm18ELj1812433253EEEjEC2ERS2_m
FNDA:1419396,_ZNSt3__1L13binary_searchIPKccNS_6__lessIccEEEEbT_S5_RKT0_T1_
FNDA:137053,_ZNSt3__1L3minImNS_6__lessImmEEEERKT_S5_S5_T0_
FNDA:136356,_ZNSt3__1L3maxImNS_6__lessImmEEEERKT_S5_S5_T0_
FNDA:33792,_ZNSt3__1L4copyIPKcPcEET0_T_S5_S4_
FNDA:0,_ZNSt3__1L3maxIPcEERKT_S4_S4_
FNDA:1342,_ZNKSt3__124uniform_int_distributionIiE10param_type1aEv
FNDA:671,_ZNSt3__125__independent_bits_engineINS_23mersenne_twister_engineIjLm32ELm624ELm397ELm31ELj2567483615ELm11ELj4294967295ELm7ELj2636928640ELm15ELj4022730752ELm18ELj1812433253EEEjEC1ERS2_m
FNDA:0,_ZNKSt3__16__lessIPcS1_EclERKS1_S4_
FNDA:67584,_ZNSt3__1L13__unwrap_iterIPKcEET_S3_
FNDA:671,_ZNSt3__124uniform_int_distributionIiEclINS_23mersenne_twister_engineIjLm32ELm624ELm397ELm31ELj2567483615ELm11ELj4294967295ELm7ELj2636928640ELm15ELj4022730752ELm18ELj1812433253EEEEEiRT_RKNS1_10param_typeE
FNDA:56,_ZNSt3__1L6__copyIhhEENS_9enable_ifIXaasr7is_sameINS_12remove_constIT_E4typeET0_EE5valuesr28is_trivially_copy_assignableIS6_EE5valueEPS6_E4typeEPS3_SA_S7_
FNDA:671,_ZNSt3__125__independent_bits_engineINS_23mersenne_twister_engineIjLm32ELm624ELm397ELm31ELj2567483615ELm11ELj4294967295ELm7ELj2636928640ELm15ELj4022730752ELm18ELj1812433253EEEjEclEv
FNDA:33792,_ZNSt3__1L4sortIPcNS_6__lessIccEEEEvT_S4_T0_
FNDA:2323992,_ZNKSt3__16__lessIccEclERKcS3_
FNDA:671,_ZNSt3__124uniform_int_distributionIiE10param_typeC2Eii
FNDA:0,_ZNKSt3__16__lessIllEclERKlS3_
FNDA:1419396,_ZNSt3__113__lower_boundIRNS_6__lessIccEEPKccEET0_S6_S6_RKT1_T_
FNDA:671,_ZNSt3__124uniform_int_distributionIiEC2Eii
FNDA:0,_ZNKSt3__110__equal_toIccEclERKcS3_
FNDA:0,_ZNSt3__1L6fill_nIPN5boost2io6detail11format_itemIcNS_11char_traitsIcEENS_9allocatorIcEEEEmS9_EET_SB_T0_RKT1_
FNDA:671,_ZNSt3__124uniform_int_distributionIiEclINS_23mersenne_twister_engineIjLm32ELm624ELm397ELm31ELj2567483615ELm11ELj4294967295ELm7ELj2636928640ELm15ELj4022730752ELm18ELj1812433253EEEEEiRT_
FNDA:0,_ZNSt3__1L5equalINS_11__wrap_iterIPcEES3_NS_10__equal_toIccEEEEbT_S6_T0_T1_
FNDA:136356,_ZNSt3__1L3maxImEERKT_S3_S3_
FNDA:671,_ZNKSt3__124uniform_int_distributionIiE10param_type1bEv
FNDA:1419396,_ZNSt3__1L15__half_positiveIlEENS_9enable_ifIXsr11is_integralIT_EE5valueES2_E4typeES2_
FNDA:33792,_ZNSt3__1L6__copyIKccEENS_9enable_ifIXaasr7is_sameINS_12remove_constIT_E4typeET0_EE5valuesr28is_trivially_copy_assignableIS7_EE5valueEPS7_E4typeEPS4_SB_S8_
FNDA:0,_ZNSt3__1L3maxIlNS_6__lessIllEEEERKT_S5_S5_T0_
FNDA:137053,_ZNSt3__1L3minImEERKT_S3_S3_
FNDA:273409,_ZNKSt3__16__lessImmEclERKmS3_
FNDA:168,_ZNSt3__1L13__unwrap_iterIhEENS_9enable_ifIXsr28is_trivially_copy_assignableIT_EE5valueEPS2_E4typeENS_11__wrap_iterIS3_EE
FNDA:671,_ZNSt3__124uniform_int_distributionIiEC1Eii
FNDA:0,_ZNSt3__1L3minIlNS_6__lessIllEEEERKT_S5_S5_T0_
FNDA:33792,_ZNSt3__1L13__unwrap_iterIPcEET_S2_
FNDA:1419396,_ZNSt3__1L13binary_searchIPKccEEbT_S3_RKT0_
FNDA:0,_ZNSt3__1L3maxIlEERKT_S3_S3_
FNDA:0,_ZNSt3__1L3minIlEERKT_S3_S3_
FNDA:671,_ZNSt3__125__independent_bits_engineINS_23mersenne_twister_engineIjLm32ELm624ELm397ELm31ELj2567483615ELm11ELj4294967295ELm7ELj2636928640ELm15ELj4022730752ELm18ELj1812433253EEEjE6__evalENS_17integral_constantIbLb0EEE
FNDA:1419396,_ZNSt3__1L15__binary_searchIRNS_6__lessIccEEPKccEEbT0_S6_RKT1_T_
FNDA:0,_ZNSt3__1L3maxIPcNS_6__lessIS1_S1_EEEERKT_S6_S6_T0_
FNDA:671,_ZNSt3__124uniform_int_distributionIiE10param_typeC1Eii
FNDA:0,_ZNSt3__1L5equalINS_11__wrap_iterIPcEES3_EEbT_S4_T0_
FNDA:202752,_ZNSt3__1L7find_ifINS_11__wrap_iterIPcEEN5boost9algorithm6detail10is_any_ofFIcEEEET_S9_S9_T0_
FNDA:0,_ZNSt3__1L8__fill_nIPN5boost2io6detail11format_itemIcNS_11char_traitsIcEENS_9allocatorIcEEEEmS9_EET_SB_T0_RKT1_
FNDA:56,_ZNSt3__1L4copyINS_11__wrap_iterIPhEES3_EET0_T_S5_S4_
FNDA:33792,_ZNSt3__1L4sortIPcEEvT_S2_
FNF:46
FNH:33
DA:679,0
DA:716,2597401
DA:762,1419396
DA:764,1419396
DA:901,202752
DA:903,1486980
DA:904,1419396
DA:905,135168
DA:906,202752
DA:1216,0
DA:1218,0
DA:1219,0
DA:1220,0
DA:1221,0
DA:1222,0
DA:1227,0
DA:1231,0
DA:1583,101376
DA:1585,101376
DA:1609,168
DA:1611,168
DA:1648,33848
DA:1650,33848
DA:1651,33848
DA:1652,33848
DA:1653,33848
DA:1659,33848
DA:1661,33848
DA:1931,0
DA:1933,0
DA:1934,0
DA:1935,0
DA:1941,0
DA:1943,0
DA:2454,137053
DA:2456,137053
DA:2462,137053
DA:2464,137053
DA:2521,136356
DA:2523,136356
DA:2529,136356
DA:2531,136356
DA:2776,671
DA:2785,1342
DA:2786,671
DA:2787,671
DA:2788,671
DA:2789,671
DA:2790,671
DA:2792,671
DA:2797,671
DA:2799,0
DA:2800,0
DA:2801,0
DA:2802,0
DA:2804,0
DA:2805,0
DA:2806,671
DA:2807,671
DA:2808,671
DA:2810,0
DA:2811,671
DA:2813,671
DA:2814,671
DA:2816,1342
DA:2821,671
DA:2823,671
DA:2877,1342
DA:2879,1342
DA:2881,1342
DA:2882,671
DA:2895,1342
DA:2897,1342
DA:2902,671
DA:2903,671
DA:2927,671
DA:2932,671
DA:2933,671
DA:2934,0
DA:2935,671
DA:2937,671
DA:2938,0
DA:2939,671
DA:2940,671
DA:2941,0
DA:2942,671
DA:2944,671
DA:2946,671
DA:2947,671
DA:2948,671
DA:2949,671
DA:4010,33792
DA:4018,33792
DA:4020,33792
DA:4025,33792
DA:4027,33792
DA:4028,33792
DA:4093,1419396
DA:4096,1419396
DA:4097,2838792
DA:4099,1419396
DA:4100,1419396
DA:4101,1419396
DA:4102,1419396
DA:4104,514800
DA:4105,514800
DA:4106,514800
DA:4108,904596
DA:4110,1419396
DA:4238,1419396
DA:4240,1419396
DA:4241,1419396
DA:4247,1419396
DA:4255,1419396
DA:4262,1419396
DA:4264,1419396
LF:116
LH:91
end_of_record
TN:
SF:/Applications/Xcode.app/Contents/Developer/Toolchains/XcodeDefault.xctoolchain/usr/include/c++/v1/bit
FN:52,_ZNSt3__1L5__clzEj
FNDA:671,_ZNSt3__1L5__clzEj
FNF:1
FNH:1
DA:52,671
LF:1
LH:1
end_of_record
TN:
SF:/Applications/Xcode.app/Contents/Developer/Toolchains/XcodeDefault.xctoolchain/usr/include/c++/v1/bitset
FN:473,_ZNKSt3__18__bitsetILm1ELm8EE10__make_refEm
FN:515,_ZNSt3__18__bitsetILm1ELm8EEC2Ey
FN:682,_ZNSt3__16bitsetILm8EEC1Ey
FN:682,_ZNSt3__16bitsetILm8EEC2Ey
FN:717,_ZNKSt3__16bitsetILm8EEixEm
FN:952,_ZNKSt3__16bitsetILm8EE9to_stringIcNS_11char_traitsIcEENS_9allocatorIcEEEENS_12basic_stringIT_T0_T1_EES8_S8_
FN:967,_ZNKSt3__16bitsetILm8EE9to_stringIcNS_11char_traitsIcEEEENS_12basic_stringIT_T0_NS_9allocatorIS6_EEEES6_S6_
FNDA:0,_ZNSt3__16bitsetILm8EEC1Ey
FNDA:0,_ZNSt3__18__bitsetILm1ELm8EEC2Ey
FNDA:0,_ZNKSt3__16bitsetILm8EE9to_stringIcNS_11char_traitsIcEEEENS_12basic_stringIT_T0_NS_9allocatorIS6_EEEES6_S6_
FNDA:0,_ZNKSt3__16bitsetILm8EEixEm
FNDA:0,_ZNKSt3__18__bitsetILm1ELm8EE10__make_refEm
FNDA:0,_ZNKSt3__16bitsetILm8EE9to_stringIcNS_11char_traitsIcEENS_9allocatorIcEEEENS_12basic_stringIT_T0_T1_EES8_S8_
FNDA:0,_ZNSt3__16bitsetILm8EEC2Ey
FNF:7
FNH:0
DA:473,0
DA:474,0
DA:515,0
DA:516,0
DA:518,0
DA:521,0
DA:682,0
DA:717,0
DA:952,0
DA:954,0
DA:955,0
DA:957,0
DA:958,0
DA:959,0
DA:960,0
DA:961,0
DA:967,0
DA:969,0
LF:18
LH:0
end_of_record
TN:
SF:/Applications/Xcode.app/Contents/Developer/Toolchains/XcodeDefault.xctoolchain/usr/include/c++/v1/exception
FN:98,_ZNSt9exceptionC2ERKS_
FN:101,_ZNSt9exceptionC2Ev
FNDA:0,_ZNSt9exceptionC2Ev
FNDA:0,_ZNSt9exceptionC2ERKS_
FNF:2
FNH:0
DA:98,0
DA:101,0
LF:2
LH:0
end_of_record
TN:
SF:/Applications/Xcode.app/Contents/Developer/Toolchains/XcodeDefault.xctoolchain/usr/include/c++/v1/fstream
FN:289,_ZNSt3__113basic_filebufIcNS_11char_traitsIcEEEC1Ev
FN:289,_ZNSt3__113basic_filebufIcNS_11char_traitsIcEEEC2Ev
FN:393,_ZNSt3__113basic_filebufIcNS_11char_traitsIcEEED0Ev
FN:393,_ZNSt3__113basic_filebufIcNS_11char_traitsIcEEED2Ev
FN:393,_ZNSt3__113basic_filebufIcNS_11char_traitsIcEEED1Ev
FN:507,_ZNSt3__113basic_filebufIcNS_11char_traitsIcEEE15__make_mdstringEj
FN:549,_ZNSt3__113basic_filebufIcNS_11char_traitsIcEEE4openEPKcj
FN:684,_ZNSt3__113basic_filebufIcNS_11char_traitsIcEEE4openERKNS_12basic_stringIcS2_NS_9allocatorIcEEEEj
FN:692,_ZNSt3__113basic_filebufIcNS_11char_traitsIcEEE5closeEv
FN:712,_ZNSt3__113basic_filebufIcNS_11char_traitsIcEEE9underflowEv
FN:782,_ZNSt3__113basic_filebufIcNS_11char_traitsIcEEE9pbackfailEi
FN:804,_ZNSt3__113basic_filebufIcNS_11char_traitsIcEEE8overflowEi
FN:869,_ZNSt3__113basic_filebufIcNS_11char_traitsIcEEE6setbufEPcl
FN:922,_ZNSt3__113basic_filebufIcNS_11char_traitsIcEEE7seekoffExNS_8ios_base7seekdirEj
FN:962,_ZNSt3__113basic_filebufIcNS_11char_traitsIcEEE7seekposENS_4fposI11__mbstate_tEEj
FN:979,_ZNSt3__113basic_filebufIcNS_11char_traitsIcEEE4syncEv
FN:1048,_ZNSt3__113basic_filebufIcNS_11char_traitsIcEEE5imbueERKNS_6localeE
FN:1092,_ZNSt3__113basic_filebufIcNS_11char_traitsIcEEE11__read_modeEv
FN:1111,_ZNSt3__113basic_filebufIcNS_11char_traitsIcEEE12__write_modeEv
FN:1228,_ZNSt3__114basic_ifstreamIcNS_11char_traitsIcEEEC1ERKNS_12basic_stringIcS2_NS_9allocatorIcEEEEj
FNDA:132,_ZNSt3__113basic_filebufIcNS_11char_traitsIcEEEC2Ev
FNDA:132,_ZNSt3__113basic_filebufIcNS_11char_traitsIcEEE4syncEv
FNDA:0,_ZNSt3__113basic_filebufIcNS_11char_traitsIcEEE5imbueERKNS_6localeE
FNDA:0,_ZNSt3__113basic_filebufIcNS_11char_traitsIcEEE12__write_modeEv
FNDA:132,_ZNSt3__114basic_ifstreamIcNS_11char_traitsIcEEEC1ERKNS_12basic_stringIcS2_NS_9allocatorIcEEEEj
FNDA:0,_ZNSt3__113basic_filebufIcNS_11char_traitsIcEEE7seekposENS_4fposI11__mbstate_tEEj
FNDA:132,_ZNSt3__113basic_filebufIcNS_11char_traitsIcEEED2Ev
FNDA:132,_ZNSt3__113basic_filebufIcNS_11char_traitsIcEEE4openERKNS_12basic_stringIcS2_NS_9allocatorIcEEEEj
FNDA:0,_ZNSt3__113basic_filebufIcNS_11char_traitsIcEEE7seekoffExNS_8ios_base7seekdirEj
FNDA:132,_ZNSt3__113basic_filebufIcNS_11char_traitsIcEEE15__make_mdstringEj
FNDA:528,_ZNSt3__113basic_filebufIcNS_11char_traitsIcEEE9underflowEv
FNDA:0,_ZNSt3__113basic_filebufIcNS_11char_traitsIcEEED0Ev
FNDA:132,_ZNSt3__113basic_filebufIcNS_11char_traitsIcEEE5closeEv
FNDA:132,_ZNSt3__113basic_filebufIcNS_11char_traitsIcEEED1Ev
FNDA:0,_ZNSt3__113basic_filebufIcNS_11char_traitsIcEEE8overflowEi
FNDA:132,_ZNSt3__113basic_filebufIcNS_11char_traitsIcEEEC1Ev
FNDA:0,_ZNSt3__113basic_filebufIcNS_11char_traitsIcEEE9pbackfailEi
FNDA:264,_ZNSt3__113basic_filebufIcNS_11char_traitsIcEEE6setbufEPcl
FNDA:528,_ZNSt3__113basic_filebufIcNS_11char_traitsIcEEE11__read_modeEv
FNDA:132,_ZNSt3__113basic_filebufIcNS_11char_traitsIcEEE4openEPKcj
FNF:20
FNH:13
DA:214,132
DA:289,264
DA:290,132
DA:291,132
DA:292,132
DA:293,132
DA:294,132
DA:295,132
DA:296,132
DA:297,132
DA:298,132
DA:299,132
DA:300,132
DA:301,132
DA:302,132
DA:303,132
DA:304,132
DA:305,396
DA:306,132
DA:308,132
DA:309,132
DA:310,132
DA:311,132
DA:312,264
DA:393,264
DA:394,264
DA:399,132
DA:401,132
DA:404,0
DA:406,132
DA:407,0
DA:408,132
DA:409,0
DA:410,264
DA:507,132
DA:509,132
DA:512,0
DA:515,0
DA:517,132
DA:519,0
DA:521,0
DA:524,0
DA:527,0
DA:530,0
DA:532,0
DA:534,0
DA:536,0
DA:539,0
DA:541,0
DA:544,132
DA:549,132
DA:551,132
DA:552,132
DA:554,132
DA:555,132
DA:556,132
DA:557,132
DA:558,132
DA:559,132
DA:560,0
DA:561,0
DA:562,0
DA:563,0
DA:564,0
DA:565,0
DA:566,132
DA:567,0
DA:568,132
DA:569,132
DA:570,132
DA:684,132
DA:686,132
DA:692,132
DA:694,132
DA:695,132
DA:697,132
DA:698,132
DA:699,132
DA:700,0
DA:701,132
DA:702,132
DA:704,0
DA:705,132
DA:706,132
DA:707,132
DA:708,0
DA:712,528
DA:714,528
DA:715,0
DA:716,528
DA:718,528
DA:719,0
DA:720,528
DA:721,528
DA:722,528
DA:724,528
DA:725,528
DA:727,528
DA:728,528
DA:729,528
DA:731,792
DA:732,396
DA:733,396
DA:734,396
DA:735,396
DA:736,528
DA:740,0
DA:741,0
DA:742,0
DA:743,0
DA:744,0
DA:745,0
DA:747,0
DA:748,0
DA:749,0
DA:751,0
DA:752,0
DA:754,0
DA:756,0
DA:757,0
DA:758,0
DA:759,0
DA:761,0
DA:762,0
DA:763,0
DA:764,0
DA:765,0
DA:767,0
DA:768,0
DA:769,0
DA:770,0
DA:772,528
DA:774,0
DA:775,528
DA:776,0
DA:777,528
DA:778,528
DA:782,0
DA:784,0
DA:786,0
DA:788,0
DA:789,0
DA:791,0
DA:792,0
DA:794,0
DA:795,0
DA:796,0
DA:798,0
DA:799,0
DA:800,0
DA:804,0
DA:806,0
DA:807,0
DA:808,0
DA:810,0
DA:811,0
DA:812,0
DA:814,0
DA:815,0
DA:816,0
DA:817,0
DA:818,0
DA:819,0
DA:821,0
DA:823,0
DA:824,0
DA:825,0
DA:826,0
DA:829,0
DA:831,0
DA:833,0
DA:834,0
DA:837,0
DA:838,0
DA:839,0
DA:840,0
DA:841,0
DA:843,0
DA:844,0
DA:845,0
DA:846,0
DA:847,0
DA:849,0
DA:850,0
DA:851,0
DA:852,0
DA:854,0
DA:855,0
DA:856,0
DA:857,0
DA:859,0
DA:860,0
DA:862,0
DA:863,0
DA:864,0
DA:865,0
DA:869,264
DA:871,264
DA:872,264
DA:873,264
DA:874,132
DA:875,264
DA:876,0
DA:877,264
DA:878,264
DA:880,132
DA:882,0
DA:883,0
DA:884,0
DA:887,132
DA:888,132
DA:890,132
DA:893,132
DA:894,132
DA:895,132
DA:897,264
DA:899,0
DA:900,0
DA:902,0
DA:903,0
DA:904,0
DA:907,0
DA:908,0
DA:910,0
DA:913,264
DA:914,264
DA:915,264
DA:917,264
DA:922,0
DA:925,0
DA:926,0
DA:928,0
DA:929,0
DA:930,0
DA:933,0
DA:936,0
DA:937,0
DA:939,0
DA:940,0
DA:942,0
DA:943,0
DA:945,0
DA:952,0
DA:953,0
DA:954,0
DA:956,0
DA:957,0
DA:958,0
DA:962,0
DA:964,0
DA:965,0
DA:970,0
DA:971,0
DA:973,0
DA:974,0
DA:975,0
DA:979,132
DA:981,132
DA:982,0
DA:983,132
DA:984,0
DA:986,132
DA:988,0
DA:989,0
DA:990,0
DA:992,0
DA:995,0
DA:996,0
DA:997,0
DA:998,0
DA:999,0
DA:1000,0
DA:1001,0
DA:1002,0
DA:1003,0
DA:1004,0
DA:1005,132
DA:1008,132
DA:1009,132
DA:1010,132
DA:1011,132
DA:1014,0
DA:1015,0
DA:1016,0
DA:1017,0
DA:1020,0
DA:1022,0
DA:1023,0
DA:1024,0
DA:1025,0
DA:1026,0
DA:1027,0
DA:1034,132
DA:1035,0
DA:1037,132
DA:1038,0
DA:1039,132
DA:1040,132
DA:1041,132
DA:1042,132
DA:1043,132
DA:1044,132
DA:1048,0
DA:1050,0
DA:1051,0
DA:1052,0
DA:1053,0
DA:1054,0
DA:1056,0
DA:1057,0
DA:1059,0
DA:1061,0
DA:1062,0
DA:1063,0
DA:1064,0
DA:1065,0
DA:1066,0
DA:1067,0
DA:1068,0
DA:1069,0
DA:1072,0
DA:1074,0
DA:1075,0
DA:1076,0
DA:1077,0
DA:1078,0
DA:1079,0
DA:1082,0
DA:1083,0
DA:1084,0
DA:1087,0
DA:1088,0
DA:1092,528
DA:1094,528
DA:1096,132
DA:1097,132
DA:1098,264
DA:1099,132
DA:1100,132
DA:1102,0
DA:1103,132
DA:1104,132
DA:1106,396
DA:1107,528
DA:1111,0
DA:1113,0
DA:1115,0
DA:1116,0
DA:1118,0
DA:1119,0
DA:1120,0
DA:1122,0
DA:1123,0
DA:1125,0
DA:1126,0
DA:1127,0
DA:1128,0
DA:1153,132
DA:1228,132
DA:1229,132
DA:1230,264
DA:1231,132
DA:1232,0
DA:1233,132
LF:364
LH:137
end_of_record
TN:
SF:/Applications/Xcode.app/Contents/Developer/Toolchains/XcodeDefault.xctoolchain/usr/include/c++/v1/initializer_list
FN:85,_ZNKSt16initializer_listIhE4sizeEv
FN:89,_ZNKSt16initializer_listIhE5beginEv
FN:93,_ZNKSt16initializer_listIhE3endEv
FNDA:168,_ZNKSt16initializer_listIhE4sizeEv
FNDA:56,_ZNKSt16initializer_listIhE3endEv
FNDA:56,_ZNKSt16initializer_listIhE5beginEv
FNF:3
FNH:3
DA:85,168
DA:89,56
DA:93,56
LF:3
LH:3
end_of_record
TN:
SF:/Applications/Xcode.app/Contents/Developer/Toolchains/XcodeDefault.xctoolchain/usr/include/c++/v1/ios
FN:335,_ZNSt3__18ios_base18__setstate_nothrowEj
FN:345,_ZNSt3__18ios_baseC2Ev
FN:349,_ZNKSt3__18ios_base5rdbufEv
FN:459,_ZNKSt3__18ios_base5flagsEv
FN:466,_ZNSt3__18ios_base5flagsEj
FN:510,_ZNSt3__18ios_base9precisionEl
FN:521,_ZNKSt3__18ios_base5widthEv
FN:528,_ZNSt3__18ios_base5widthEl
FN:546,_ZNSt3__18ios_base8setstateEj
FN:567,_ZNKSt3__18ios_base4failEv
FN:581,_ZNKSt3__18ios_base10exceptionsEv
FN:588,_ZNSt3__18ios_base10exceptionsEj
FN:627,_ZNKSt3__19basic_iosIcNS_11char_traitsIcEEEcvbEv
FN:632,_ZNSt3__19basic_iosIcNS_11char_traitsIcEEE5clearEj
FN:633,_ZNSt3__19basic_iosIcNS_11char_traitsIcEEE8setstateEj
FN:636,_ZNKSt3__19basic_iosIcNS_11char_traitsIcEEE4failEv
FN:639,_ZNKSt3__19basic_iosIcNS_11char_traitsIcEEE10exceptionsEv
FN:640,_ZNSt3__19basic_iosIcNS_11char_traitsIcEEE10exceptionsEj
FN:675,_ZNSt3__19basic_iosIcNS_11char_traitsIcEEEC2Ev
FN:710,_ZNSt3__19basic_iosIcNS_11char_traitsIcEEE4initEPNS_15basic_streambufIcS2_EE
FN:738,_ZNKSt3__19basic_iosIcNS_11char_traitsIcEEE5rdbufEv
FN:756,_ZNSt3__19basic_iosIcNS_11char_traitsIcEEE5imbueERKNS_6localeE
FN:776,_ZNKSt3__19basic_iosIcNS_11char_traitsIcEEE5widenEc
FN:784,_ZNKSt3__19basic_iosIcNS_11char_traitsIcEEE4fillEv
FN:794,_ZNSt3__19basic_iosIcNS_11char_traitsIcEEE4fillEc
FNDA:36036,_ZNKSt3__19basic_iosIcNS_11char_traitsIcEEEcvbEv
FNDA:0,_ZNSt3__19basic_iosIcNS_11char_traitsIcEEE5clearEj
FNDA:0,_ZNSt3__18ios_base9precisionEl
FNDA:36168,_ZNKSt3__19basic_iosIcNS_11char_traitsIcEEE5widenEc
FNDA:0,_ZNKSt3__18ios_base10exceptionsEv
FNDA:0,_ZNSt3__19basic_iosIcNS_11char_traitsIcEEE5imbueERKNS_6localeE
FNDA:0,_ZNSt3__18ios_base5widthEl
FNDA:1461636,_ZNKSt3__18ios_base5rdbufEv
FNDA:0,_ZNSt3__18ios_base5flagsEj
FNDA:5844,_ZNSt3__19basic_iosIcNS_11char_traitsIcEEEC2Ev
FNDA:0,_ZNSt3__19basic_iosIcNS_11char_traitsIcEEE10exceptionsEj
FNDA:5844,_ZNSt3__19basic_iosIcNS_11char_traitsIcEEE4initEPNS_15basic_streambufIcS2_EE
FNDA:0,_ZNSt3__18ios_base18__setstate_nothrowEj
FNDA:36168,_ZNSt3__18ios_base8setstateEj
FNDA:36168,_ZNKSt3__19basic_iosIcNS_11char_traitsIcEEE4failEv
FNDA:1461636,_ZNKSt3__19basic_iosIcNS_11char_traitsIcEEE5rdbufEv
FNDA:36168,_ZNSt3__19basic_iosIcNS_11char_traitsIcEEE8setstateEj
FNDA:0,_ZNSt3__19basic_iosIcNS_11char_traitsIcEEE4fillEc
FNDA:36168,_ZNKSt3__18ios_base4failEv
FNDA:5844,_ZNSt3__18ios_baseC2Ev
FNDA:0,_ZNKSt3__18ios_base5widthEv
FNDA:0,_ZNSt3__18ios_base10exceptionsEj
FNDA:0,_ZNKSt3__19basic_iosIcNS_11char_traitsIcEEE10exceptionsEv
FNDA:0,_ZNKSt3__18ios_base5flagsEv
FNDA:0,_ZNKSt3__19basic_iosIcNS_11char_traitsIcEEE4fillEv
FNF:25
FNH:11
DA:335,0
DA:337,0
DA:338,0
DA:340,0
DA:341,0
DA:345,5844
DA:346,5844
DA:349,1461636
DA:459,0
DA:461,0
DA:466,0
DA:468,0
DA:469,0
DA:470,0
DA:510,0
DA:512,0
DA:513,0
DA:514,0
DA:521,0
DA:523,0
DA:528,0
DA:530,0
DA:531,0
DA:532,0
DA:546,36168
DA:548,36168
DA:549,36168
DA:567,36168
DA:569,36168
DA:581,0
DA:583,0
DA:588,0
DA:590,0
DA:591,0
DA:592,0
DA:627,36036
DA:632,0
DA:633,36168
DA:636,36168
DA:639,0
DA:640,0
DA:675,5844
DA:676,5844
DA:710,5844
DA:712,5844
DA:713,5844
DA:714,5844
DA:715,5844
DA:738,1461636
DA:740,1461636
DA:756,0
DA:758,0
DA:759,0
DA:760,0
DA:761,0
DA:762,0
DA:763,0
DA:776,36168
DA:778,36168
DA:779,0
DA:784,0
DA:786,0
DA:787,0
DA:788,0
DA:794,0
DA:796,0
DA:797,0
DA:798,0
LF:68
LH:22
end_of_record
TN:
SF:/Applications/Xcode.app/Contents/Developer/Toolchains/XcodeDefault.xctoolchain/usr/include/c++/v1/iosfwd
FN:131,_ZNSt3__115basic_stringbufIcNS_11char_traitsIcEENS_9allocatorIcEEED0Ev
FN:131,_ZNSt3__115basic_stringbufIcNS_11char_traitsIcEENS_9allocatorIcEEED1Ev
FN:131,_ZNSt3__115basic_stringbufIcNS_11char_traitsIcEENS_9allocatorIcEEED2Ev
FN:140,_ZNSt3__118basic_stringstreamIcNS_11char_traitsIcEENS_9allocatorIcEEED0Ev
FN:140,_ZNSt3__118basic_stringstreamIcNS_11char_traitsIcEENS_9allocatorIcEEED1Ev
FN:140,_ZNSt3__118basic_stringstreamIcNS_11char_traitsIcEENS_9allocatorIcEEED2Ev
FN:145,_ZNSt3__114basic_ifstreamIcNS_11char_traitsIcEEED0Ev
FN:145,_ZNSt3__114basic_ifstreamIcNS_11char_traitsIcEEED1Ev
FN:145,_ZNSt3__114basic_ifstreamIcNS_11char_traitsIcEEED2Ev
FNDA:132,_ZNSt3__114basic_ifstreamIcNS_11char_traitsIcEEED1Ev
FNDA:132,_ZNSt3__114basic_ifstreamIcNS_11char_traitsIcEEED2Ev
FNDA:0,_ZNSt3__118basic_stringstreamIcNS_11char_traitsIcEENS_9allocatorIcEEED1Ev
FNDA:0,_ZNSt3__115basic_stringbufIcNS_11char_traitsIcEENS_9allocatorIcEEED1Ev
FNDA:5712,_ZNSt3__115basic_stringbufIcNS_11char_traitsIcEENS_9allocatorIcEEED2Ev
FNDA:0,_ZNSt3__118basic_stringstreamIcNS_11char_traitsIcEENS_9allocatorIcEEED2Ev
FNDA:0,_ZNSt3__114basic_ifstreamIcNS_11char_traitsIcEEED0Ev
FNDA:0,_ZNSt3__115basic_stringbufIcNS_11char_traitsIcEENS_9allocatorIcEEED0Ev
FNDA:0,_ZNSt3__118basic_stringstreamIcNS_11char_traitsIcEENS_9allocatorIcEEED0Ev
FNF:9
FNH:3
DA:131,5712
DA:140,0
DA:145,264
LF:3
LH:2
end_of_record
TN:
SF:/Applications/Xcode.app/Contents/Developer/Toolchains/XcodeDefault.xctoolchain/usr/include/c++/v1/istream
FN:191,_ZNSt3__113basic_istreamIcNS_11char_traitsIcEEEC2EPNS_15basic_streambufIcS2_EE
FN:307,_ZNKSt3__113basic_istreamIcNS_11char_traitsIcEEE6sentrycvbEv
FN:1408,_ZNSt3__114basic_iostreamIcNS_11char_traitsIcEEEC2EPNS_15basic_streambufIcS2_EE
FN:1509,_ZNSt3__17getlineIcNS_11char_traitsIcEENS_9allocatorIcEEEERNS_13basic_istreamIT_T0_EES9_RNS_12basic_stringIS6_S7_T1_EES6_
FN:1563,_ZNSt3__1L7getlineIcNS_11char_traitsIcEENS_9allocatorIcEEEERNS_13basic_istreamIT_T0_EES9_RNS_12basic_stringIS6_S7_T1_EE
FNDA:132,_ZNSt3__113basic_istreamIcNS_11char_traitsIcEEEC2EPNS_15basic_streambufIcS2_EE
FNDA:36168,_ZNSt3__1L7getlineIcNS_11char_traitsIcEENS_9allocatorIcEEEERNS_13basic_istreamIT_T0_EES9_RNS_12basic_stringIS6_S7_T1_EE
FNDA:36168,_ZNKSt3__113basic_istreamIcNS_11char_traitsIcEEE6sentrycvbEv
FNDA:36168,_ZNSt3__17getlineIcNS_11char_traitsIcEENS_9allocatorIcEEEERNS_13basic_istreamIT_T0_EES9_RNS_12basic_stringIS6_S7_T1_EES6_
FNDA:0,_ZNSt3__114basic_iostreamIcNS_11char_traitsIcEEEC2EPNS_15basic_streambufIcS2_EE
FNF:5
FNH:4
DA:191,132
DA:192,264
DA:307,36168
DA:1408,0
DA:1409,0
DA:1410,0
DA:1509,36168
DA:1512,36168
DA:1513,36168
DA:1514,36168
DA:1520,36168
DA:1521,36168
DA:1522,1461636
DA:1524,1461636
DA:1525,1461636
DA:1527,132
DA:1528,132
DA:1530,1461504
DA:1531,1461504
DA:1532,1461504
DA:1533,36036
DA:1534,1425468
DA:1535,1425468
DA:1537,0
DA:1538,0
DA:1541,36168
DA:1542,132
DA:1544,36168
DA:1547,0
DA:1548,0
DA:1549,0
DA:1551,0
DA:1553,0
DA:1555,36168
DA:1556,36168
DA:1557,36168
DA:1558,0
DA:1563,36168
DA:1566,36168
LF:39
LH:28
end_of_record
TN:
SF:/Applications/Xcode.app/Contents/Developer/Toolchains/XcodeDefault.xctoolchain/usr/include/c++/v1/iterator
FN:572,_ZNSt3__1L9__advanceIPKcEEvRT_NS_15iterator_traitsIS3_E15difference_typeENS_26random_access_iterator_tagE
FN:580,_ZNSt3__1L7advanceIPKcEEvRT_NS_15iterator_traitsIS3_E15difference_typeE
FN:600,_ZNSt3__1L10__distanceINS_11__wrap_iterIPcEEEENS_15iterator_traitsIT_E15difference_typeES5_S5_NS_26random_access_iterator_tagE
FN:600,_ZNSt3__1L10__distanceIPcEENS_15iterator_traitsIT_E15difference_typeES3_S3_NS_26random_access_iterator_tagE
FN:600,_ZNSt3__1L10__distanceINS_14__bit_iteratorINS_6vectorIbNS_9allocatorIbEEEELb0ELm0EEEEENS_15iterator_traitsIT_E15difference_typeES8_S8_NS_26random_access_iterator_tagE
FN:600,_ZNSt3__1L10__distanceINS_11__wrap_iterIPKcEEEENS_15iterator_traitsIT_E15difference_typeES6_S6_NS_26random_access_iterator_tagE
FN:600,_ZNSt3__1L10__distanceIPKcEENS_15iterator_traitsIT_E15difference_typeES4_S4_NS_26random_access_iterator_tagE
FN:608,_ZNSt3__1L8distanceIPKcEENS_15iterator_traitsIT_E15difference_typeES4_S4_
FN:608,_ZNSt3__1L8distanceINS_11__wrap_iterIPcEEEENS_15iterator_traitsIT_E15difference_typeES5_S5_
FN:608,_ZNSt3__1L8distanceINS_11__wrap_iterIPKcEEEENS_15iterator_traitsIT_E15difference_typeES6_S6_
FN:608,_ZNSt3__1L8distanceIPcEENS_15iterator_traitsIT_E15difference_typeES3_S3_
FN:608,_ZNSt3__1L8distanceINS_14__bit_iteratorINS_6vectorIbNS_9allocatorIbEEEELb0ELm0EEEEENS_15iterator_traitsIT_E15difference_typeES8_S8_
FN:1067,_ZNSt3__119ostreambuf_iteratorIcNS_11char_traitsIcEEEC2ERNS_13basic_ostreamIcS2_EE
FN:1067,_ZNSt3__119ostreambuf_iteratorIcNS_11char_traitsIcEEEC1ERNS_13basic_ostreamIcS2_EE
FN:1080,_ZNKSt3__119ostreambuf_iteratorIcNS_11char_traitsIcEEE6failedEv
FN:1327,_ZNSt3__111__wrap_iterIPcEC1Ev
FN:1327,_ZNSt3__111__wrap_iterIPKcEC2Ev
FN:1327,_ZNSt3__111__wrap_iterIPcEC2Ev
FN:1327,_ZNSt3__111__wrap_iterIPKcEC1Ev
FN:1337,_ZNSt3__111__wrap_iterIPKcEC2IPcEERKNS0_IT_EEPNS_9enable_ifIXsr14is_convertibleIS6_S2_EE5valueEvE4typeE
FN:1337,_ZNSt3__111__wrap_iterIPKcEC1IPcEERKNS0_IT_EEPNS_9enable_ifIXsr14is_convertibleIS6_S2_EE5valueEvE4typeE
FN:1368,_ZNKSt3__111__wrap_iterIPKcEdeEv
FN:1368,_ZNKSt3__111__wrap_iterIPcEdeEv
FN:1384,_ZNSt3__111__wrap_iterIPKcEppEv
FN:1384,_ZNSt3__111__wrap_iterIPcEppEv
FN:1396,_ZNSt3__111__wrap_iterIPcEmmEv
FN:1407,_ZNKSt3__111__wrap_iterIPhEplEl
FN:1407,_ZNKSt3__111__wrap_iterIPKcEplEl
FN:1407,_ZNKSt3__111__wrap_iterIPcEplEl
FN:1409,_ZNSt3__111__wrap_iterIPhEpLEl
FN:1409,_ZNSt3__111__wrap_iterIPKcEpLEl
FN:1409,_ZNSt3__111__wrap_iterIPcEpLEl
FN:1431,_ZNKSt3__111__wrap_iterIPKcE4baseEv
FN:1431,_ZNKSt3__111__wrap_iterIPhE4baseEv
FN:1431,_ZNKSt3__111__wrap_iterIPcE4baseEv
FN:1440,_ZNSt3__111__wrap_iterIPcEC1ES1_
FN:1440,_ZNSt3__111__wrap_iterIPcEC2ES1_
FN:1440,_ZNSt3__111__wrap_iterIPhEC2ES1_
FN:1440,_ZNSt3__111__wrap_iterIPKcEC2ES2_
FN:1440,_ZNSt3__111__wrap_iterIPhEC1ES1_
FN:1440,_ZNSt3__111__wrap_iterIPKcEC1ES2_
FN:1525,_ZNSt3__1eqIPKcS2_EEbRKNS_11__wrap_iterIT_EERKNS3_IT0_EE
FN:1525,_ZNSt3__1eqIPcS1_EEbRKNS_11__wrap_iterIT_EERKNS2_IT0_EE
FN:1533,_ZNSt3__1ltIPKcS2_EEbRKNS_11__wrap_iterIT_EERKNS3_IT0_EE
FN:1577,_ZNSt3__1neIPKcEEbRKNS_11__wrap_iterIT_EES7_
FN:1577,_ZNSt3__1neIPcEEbRKNS_11__wrap_iterIT_EES6_
FN:1593,_ZNSt3__1geIPKcEEbRKNS_11__wrap_iterIT_EES7_
FN:1610,_ZNSt3__1miIPKcPcEEDTmicldtfp_4baseEcldtfp0_4baseEERKNS_11__wrap_iterIT_EERKNS5_IT0_EE
FN:1610,_ZNSt3__1miIPcS1_EEDTmicldtfp_4baseEcldtfp0_4baseEERKNS_11__wrap_iterIT_EERKNS3_IT0_EE
FN:1610,_ZNSt3__1miIPKcS2_EEDTmicldtfp_4baseEcldtfp0_4baseEERKNS_11__wrap_iterIT_EERKNS4_IT0_EE
FNDA:135168,_ZNKSt3__111__wrap_iterIPcEplEl
FNDA:3405600,_ZNSt3__1neIPcEEbRKNS_11__wrap_iterIT_EES6_
FNDA:1419396,_ZNSt3__1L7advanceIPKcEEvRT_NS_15iterator_traitsIS3_E15difference_typeE
FNDA:0,_ZNSt3__1L8distanceIPcEENS_15iterator_traitsIT_E15difference_typeES3_S3_
FNDA:0,_ZNSt3__111__wrap_iterIPKcEC1ES2_
FNDA:0,_ZNSt3__1L8distanceINS_14__bit_iteratorINS_6vectorIbNS_9allocatorIbEEEELb0ELm0EEEEENS_15iterator_traitsIT_E15difference_typeES8_S8_
FNDA:1419396,_ZNSt3__1L10__distanceIPKcEENS_15iterator_traitsIT_E15difference_typeES4_S4_NS_26random_access_iterator_tagE
FNDA:270336,_ZNSt3__111__wrap_iterIPKcEC1IPcEERKNS0_IT_EEPNS_9enable_ifIXsr14is_convertibleIS6_S2_EE5valueEvE4typeE
FNDA:0,_ZNSt3__1L8distanceINS_11__wrap_iterIPKcEEEENS_15iterator_traitsIT_E15difference_typeES6_S6_
FNDA:0,_ZNSt3__119ostreambuf_iteratorIcNS_11char_traitsIcEEEC1ERNS_13basic_ostreamIcS2_EE
FNDA:0,_ZNSt3__111__wrap_iterIPKcEC1Ev
FNDA:0,_ZNKSt3__111__wrap_iterIPKcEplEl
FNDA:3946272,_ZNSt3__1eqIPcS1_EEbRKNS_11__wrap_iterIT_EERKNS2_IT0_EE
FNDA:0,_ZNSt3__1L10__distanceINS_11__wrap_iterIPKcEEEENS_15iterator_traitsIT_E15difference_typeES6_S6_NS_26random_access_iterator_tagE
FNDA:135168,_ZNSt3__1miIPKcS2_EEDTmicldtfp_4baseEcldtfp0_4baseEERKNS_11__wrap_iterIT_EERKNS4_IT0_EE
FNDA:135168,_ZNSt3__111__wrap_iterIPcEpLEl
FNDA:1419396,_ZNSt3__1L9__advanceIPKcEEvRT_NS_15iterator_traitsIS3_E15difference_typeENS_26random_access_iterator_tagE
FNDA:0,_ZNKSt3__119ostreambuf_iteratorIcNS_11char_traitsIcEEE6failedEv
FNDA:3135264,_ZNKSt3__111__wrap_iterIPcEdeEv
FNDA:67584,_ZNSt3__111__wrap_iterIPcEmmEv
FNDA:135168,_ZNSt3__111__wrap_iterIPcEC2Ev
FNDA:0,_ZNSt3__1L10__distanceINS_14__bit_iteratorINS_6vectorIbNS_9allocatorIbEEEELb0ELm0EEEEENS_15iterator_traitsIT_E15difference_typeES8_S8_NS_26random_access_iterator_tagE
FNDA:8635968,_ZNKSt3__111__wrap_iterIPcE4baseEv
FNDA:224,_ZNSt3__111__wrap_iterIPhEC1ES1_
FNDA:168960,_ZNSt3__1miIPcS1_EEDTmicldtfp_4baseEcldtfp0_4baseEERKNS_11__wrap_iterIT_EERKNS3_IT0_EE
FNDA:0,_ZNSt3__111__wrap_iterIPKcEpLEl
FNDA:3067680,_ZNSt3__111__wrap_iterIPcEppEv
FNDA:168960,_ZNSt3__1L8distanceINS_11__wrap_iterIPcEEEENS_15iterator_traitsIT_E15difference_typeES5_S5_
FNDA:168960,_ZNSt3__1L10__distanceINS_11__wrap_iterIPcEEEENS_15iterator_traitsIT_E15difference_typeES5_S5_NS_26random_access_iterator_tagE
FNDA:0,_ZNKSt3__111__wrap_iterIPKcEdeEv
FNDA:0,_ZNSt3__1eqIPKcS2_EEbRKNS_11__wrap_iterIT_EERKNS3_IT0_EE
FNDA:0,_ZNSt3__1L10__distanceIPcEENS_15iterator_traitsIT_E15difference_typeES3_S3_NS_26random_access_iterator_tagE
FNDA:168,_ZNKSt3__111__wrap_iterIPhE4baseEv
FNDA:56,_ZNKSt3__111__wrap_iterIPhEplEl
FNDA:0,_ZNSt3__119ostreambuf_iteratorIcNS_11char_traitsIcEEEC2ERNS_13basic_ostreamIcS2_EE
FNDA:0,_ZNSt3__1neIPKcEEbRKNS_11__wrap_iterIT_EES7_
FNDA:0,_ZNSt3__111__wrap_iterIPKcEC2ES2_
FNDA:0,_ZNSt3__1ltIPKcS2_EEbRKNS_11__wrap_iterIT_EERKNS3_IT0_EE
FNDA:135168,_ZNSt3__1miIPKcPcEEDTmicldtfp_4baseEcldtfp0_4baseEERKNS_11__wrap_iterIT_EERKNS5_IT0_EE
FNDA:0,_ZNSt3__111__wrap_iterIPKcEC2Ev
FNDA:0,_ZNSt3__1geIPKcEEbRKNS_11__wrap_iterIT_EES7_
FNDA:224,_ZNSt3__111__wrap_iterIPhEC2ES1_
FNDA:0,_ZNSt3__111__wrap_iterIPKcEppEv
FNDA:135168,_ZNSt3__111__wrap_iterIPcEC1Ev
FNDA:405504,_ZNKSt3__111__wrap_iterIPKcE4baseEv
FNDA:56,_ZNSt3__111__wrap_iterIPhEpLEl
FNDA:270336,_ZNSt3__111__wrap_iterIPKcEC2IPcEERKNS0_IT_EEPNS_9enable_ifIXsr14is_convertibleIS6_S2_EE5valueEvE4typeE
FNDA:608256,_ZNSt3__111__wrap_iterIPcEC2ES1_
FNDA:608256,_ZNSt3__111__wrap_iterIPcEC1ES1_
FNDA:1419396,_ZNSt3__1L8distanceIPKcEENS_15iterator_traitsIT_E15difference_typeES4_S4_
FNF:50
FNH:29
DA:572,1419396
DA:575,1419396
DA:576,1419396
DA:580,1419396
DA:583,1419396
DA:584,1419396
DA:600,1588356
DA:602,1588356
DA:608,1588356
DA:610,1588356
DA:1067,0
DA:1068,0
DA:1080,0
DA:1327,270336
DA:1329,135168
DA:1331,135168
DA:1335,270336
DA:1337,540672
DA:1339,270336
DA:1340,270336
DA:1344,540672
DA:1368,3135264
DA:1374,3135264
DA:1384,3067680
DA:1390,3067680
DA:1391,3067680
DA:1396,67584
DA:1402,67584
DA:1403,67584
DA:1407,135224
DA:1408,135224
DA:1409,135224
DA:1415,135224
DA:1416,135224
DA:1431,9041640
DA:1440,1216960
DA:1525,3946272
DA:1527,3946272
DA:1533,0
DA:1539,0
DA:1577,3405600
DA:1579,3405600
DA:1593,0
DA:1595,0
DA:1610,439296
DA:1617,439296
LF:46
LH:39
end_of_record
TN:
SF:/Applications/Xcode.app/Contents/Developer/Toolchains/XcodeDefault.xctoolchain/usr/include/c++/v1/limits
FN:215,_ZNSt3__123__libcpp_numeric_limitsImLb1EE3maxEv
FN:215,_ZNSt3__123__libcpp_numeric_limitsIlLb1EE3maxEv
FN:215,_ZNSt3__123__libcpp_numeric_limitsIjLb1EE3maxEv
FN:452,_ZNSt3__114numeric_limitsImE3maxEv
FN:452,_ZNSt3__114numeric_limitsIlE3maxEv
FN:452,_ZNSt3__114numeric_limitsIjE3maxEv
FNDA:0,_ZNSt3__114numeric_limitsImE3maxEv
FNDA:0,_ZNSt3__123__libcpp_numeric_limitsImLb1EE3maxEv
FNDA:136657,_ZNSt3__114numeric_limitsIlE3maxEv
FNDA:136657,_ZNSt3__123__libcpp_numeric_limitsIlLb1EE3maxEv
FNDA:671,_ZNSt3__114numeric_limitsIjE3maxEv
FNDA:671,_ZNSt3__123__libcpp_numeric_limitsIjLb1EE3maxEv
FNF:6
FNH:4
DA:215,137328
DA:452,137328
LF:2
LH:2
end_of_record
TN:
SF:/Applications/Xcode.app/Contents/Developer/Toolchains/XcodeDefault.xctoolchain/usr/include/c++/v1/locale
FN:1383,_ZNSt3__116__pad_and_outputIcNS_11char_traitsIcEEEENS_19ostreambuf_iteratorIT_T0_EES6_PKS4_S8_S8_RNS_8ios_baseES4_
FNDA:0,_ZNSt3__116__pad_and_outputIcNS_11char_traitsIcEEEENS_19ostreambuf_iteratorIT_T0_EES6_PKS4_S8_S8_RNS_8ios_baseES4_
FNF:1
FNH:0
DA:1383,0
DA:1387,0
DA:1388,0
DA:1389,0
DA:1390,0
DA:1391,0
DA:1392,0
DA:1394,0
DA:1395,0
DA:1396,0
DA:1398,0
DA:1400,0
DA:1401,0
DA:1403,0
DA:1404,0
DA:1406,0
DA:1407,0
DA:1409,0
DA:1410,0
DA:1412,0
DA:1413,0
DA:1414,0
DA:1416,0
DA:1418,0
DA:1419,0
DA:1421,0
DA:1422,0
DA:1423,0
DA:1424,0
LF:29
LH:0
end_of_record
TN:
SF:/Applications/Xcode.app/Contents/Developer/Toolchains/XcodeDefault.xctoolchain/usr/include/c++/v1/map
FN:507,_ZNSt3__119__map_value_compareIPKN5boost6system14error_categoryENS_12__value_typeIS5_NS_10unique_ptrINS2_6detail12std_categoryENS_14default_deleteIS9_EEEEEENS8_12cat_ptr_lessELb1EEC1ESE_
FN:507,_ZNSt3__119__map_value_compareIPKN5boost6system14error_categoryENS_12__value_typeIS5_NS_10unique_ptrINS2_6detail12std_categoryENS_14default_deleteIS9_EEEEEENS8_12cat_ptr_lessELb1EEC2ESE_
FN:516,_ZNKSt3__119__map_value_compareIPKN5boost6system14error_categoryENS_12__value_typeIS5_NS_10unique_ptrINS2_6detail12std_categoryENS_14default_deleteIS9_EEEEEENS8_12cat_ptr_lessELb1EEclERKSD_RKS5_
FN:519,_ZNKSt3__119__map_value_compareIPKN5boost6system14error_categoryENS_12__value_typeIS5_NS_10unique_ptrINS2_6detail12std_categoryENS_14default_deleteIS9_EEEEEENS8_12cat_ptr_lessELb1EEclERKS5_RKSD_
FN:671,_ZNSt3__112__value_typeIPKN5boost6system14error_categoryENS_10unique_ptrINS2_6detail12std_categoryENS_14default_deleteIS8_EEEEE11__get_valueEv
FN:681,_ZNKSt3__112__value_typeIPKN5boost6system14error_categoryENS_10unique_ptrINS2_6detail12std_categoryENS_14default_deleteIS8_EEEEE11__get_valueEv
FN:795,_ZNSt3__114__map_iteratorINS_15__tree_iteratorINS_12__value_typeIPKN5boost6system14error_categoryENS_10unique_ptrINS4_6detail12std_categoryENS_14default_deleteISA_EEEEEEPNS_11__tree_nodeISE_PvEElEEEC1ESJ_
FN:795,_ZNSt3__114__map_iteratorINS_15__tree_iteratorINS_12__value_typeIPKN5boost6system14error_categoryENS_10unique_ptrINS4_6detail12std_categoryENS_14default_deleteISA_EEEEEEPNS_11__tree_nodeISE_PvEElEEEC2ESJ_
FN:800,_ZNKSt3__114__map_iteratorINS_15__tree_iteratorINS_12__value_typeIPKN5boost6system14error_categoryENS_10unique_ptrINS4_6detail12std_categoryENS_14default_deleteISA_EEEEEEPNS_11__tree_nodeISE_PvEElEEEptEv
FN:823,_ZNSt3__1eqERKNS_14__map_iteratorINS_15__tree_iteratorINS_12__value_typeIPKN5boost6system14error_categoryENS_10unique_ptrINS4_6detail12std_categoryENS_14default_deleteISA_EEEEEEPNS_11__tree_nodeISE_PvEElEEEESM_
FN:899,_ZNSt3__13mapIPKN5boost6system14error_categoryENS_10unique_ptrINS2_6detail12std_categoryENS_14default_deleteIS8_EEEENS7_12cat_ptr_lessENS_9allocatorINS_4pairIKS5_SB_EEEEED1Ev
FN:899,_ZNSt3__13mapIPKN5boost6system14error_categoryENS_10unique_ptrINS2_6detail12std_categoryENS_14default_deleteIS8_EEEENS7_12cat_ptr_lessENS_9allocatorINS_4pairIKS5_SB_EEEEED2Ev
FN:962,_ZNSt3__13mapIPKN5boost6system14error_categoryENS_10unique_ptrINS2_6detail12std_categoryENS_14default_deleteIS8_EEEENS7_12cat_ptr_lessENS_9allocatorINS_4pairIKS5_SB_EEEEEC2Ev
FN:962,_ZNSt3__13mapIPKN5boost6system14error_categoryENS_10unique_ptrINS2_6detail12std_categoryENS_14default_deleteIS8_EEEENS7_12cat_ptr_lessENS_9allocatorINS_4pairIKS5_SB_EEEEEC1Ev
FN:1094,_ZNSt3__13mapIPKN5boost6system14error_categoryENS_10unique_ptrINS2_6detail12std_categoryENS_14default_deleteIS8_EEEENS7_12cat_ptr_lessENS_9allocatorINS_4pairIKS5_SB_EEEEE3endEv
FN:1180,_ZNSt3__13mapIPKN5boost6system14error_categoryENS_10unique_ptrINS2_6detail12std_categoryENS_14default_deleteIS8_EEEENS7_12cat_ptr_lessENS_9allocatorINS_4pairIKS5_SB_EEEEE6insertEOSG_
FN:1375,_ZNSt3__13mapIPKN5boost6system14error_categoryENS_10unique_ptrINS2_6detail12std_categoryENS_14default_deleteIS8_EEEENS7_12cat_ptr_lessENS_9allocatorINS_4pairIKS5_SB_EEEEE4findERSF_
FNDA:0,_ZNSt3__114__map_iteratorINS_15__tree_iteratorINS_12__value_typeIPKN5boost6system14error_categoryENS_10unique_ptrINS4_6detail12std_categoryENS_14default_deleteISA_EEEEEEPNS_11__tree_nodeISE_PvEElEEEC2ESJ_
FNDA:0,_ZNSt3__13mapIPKN5boost6system14error_categoryENS_10unique_ptrINS2_6detail12std_categoryENS_14default_deleteIS8_EEEENS7_12cat_ptr_lessENS_9allocatorINS_4pairIKS5_SB_EEEEEC1Ev
FNDA:0,_ZNSt3__13mapIPKN5boost6system14error_categoryENS_10unique_ptrINS2_6detail12std_categoryENS_14default_deleteIS8_EEEENS7_12cat_ptr_lessENS_9allocatorINS_4pairIKS5_SB_EEEEE4findERSF_
FNDA:0,_ZNSt3__119__map_value_compareIPKN5boost6system14error_categoryENS_12__value_typeIS5_NS_10unique_ptrINS2_6detail12std_categoryENS_14default_deleteIS9_EEEEEENS8_12cat_ptr_lessELb1EEC2ESE_
FNDA:0,_ZNSt3__112__value_typeIPKN5boost6system14error_categoryENS_10unique_ptrINS2_6detail12std_categoryENS_14default_deleteIS8_EEEEE11__get_valueEv
FNDA:0,_ZNSt3__13mapIPKN5boost6system14error_categoryENS_10unique_ptrINS2_6detail12std_categoryENS_14default_deleteIS8_EEEENS7_12cat_ptr_lessENS_9allocatorINS_4pairIKS5_SB_EEEEED2Ev
FNDA:0,_ZNSt3__119__map_value_compareIPKN5boost6system14error_categoryENS_12__value_typeIS5_NS_10unique_ptrINS2_6detail12std_categoryENS_14default_deleteIS9_EEEEEENS8_12cat_ptr_lessELb1EEC1ESE_
FNDA:0,_ZNKSt3__114__map_iteratorINS_15__tree_iteratorINS_12__value_typeIPKN5boost6system14error_categoryENS_10unique_ptrINS4_6detail12std_categoryENS_14default_deleteISA_EEEEEEPNS_11__tree_nodeISE_PvEElEEEptEv
FNDA:0,_ZNSt3__13mapIPKN5boost6system14error_categoryENS_10unique_ptrINS2_6detail12std_categoryENS_14default_deleteIS8_EEEENS7_12cat_ptr_lessENS_9allocatorINS_4pairIKS5_SB_EEEEEC2Ev
FNDA:0,_ZNSt3__114__map_iteratorINS_15__tree_iteratorINS_12__value_typeIPKN5boost6system14error_categoryENS_10unique_ptrINS4_6detail12std_categoryENS_14default_deleteISA_EEEEEEPNS_11__tree_nodeISE_PvEElEEEC1ESJ_
FNDA:0,_ZNSt3__13mapIPKN5boost6system14error_categoryENS_10unique_ptrINS2_6detail12std_categoryENS_14default_deleteIS8_EEEENS7_12cat_ptr_lessENS_9allocatorINS_4pairIKS5_SB_EEEEED1Ev
FNDA:0,_ZNKSt3__112__value_typeIPKN5boost6system14error_categoryENS_10unique_ptrINS2_6detail12std_categoryENS_14default_deleteIS8_EEEEE11__get_valueEv
FNDA:0,_ZNKSt3__119__map_value_compareIPKN5boost6system14error_categoryENS_12__value_typeIS5_NS_10unique_ptrINS2_6detail12std_categoryENS_14default_deleteIS9_EEEEEENS8_12cat_ptr_lessELb1EEclERKS5_RKSD_
FNDA:0,_ZNSt3__13mapIPKN5boost6system14error_categoryENS_10unique_ptrINS2_6detail12std_categoryENS_14default_deleteIS8_EEEENS7_12cat_ptr_lessENS_9allocatorINS_4pairIKS5_SB_EEEEE6insertEOSG_
FNDA:0,_ZNKSt3__119__map_value_compareIPKN5boost6system14error_categoryENS_12__value_typeIS5_NS_10unique_ptrINS2_6detail12std_categoryENS_14default_deleteIS9_EEEEEENS8_12cat_ptr_lessELb1EEclERKSD_RKS5_
FNDA:0,_ZNSt3__1eqERKNS_14__map_iteratorINS_15__tree_iteratorINS_12__value_typeIPKN5boost6system14error_categoryENS_10unique_ptrINS4_6detail12std_categoryENS_14default_deleteISA_EEEEEEPNS_11__tree_nodeISE_PvEElEEEESM_
FNDA:0,_ZNSt3__13mapIPKN5boost6system14error_categoryENS_10unique_ptrINS2_6detail12std_categoryENS_14default_deleteIS8_EEEENS7_12cat_ptr_lessENS_9allocatorINS_4pairIKS5_SB_EEEEE3endEv
FNF:17
FNH:0
DA:507,0
DA:509,0
DA:516,0
DA:517,0
DA:519,0
DA:520,0
DA:671,0
DA:674,0
DA:681,0
DA:684,0
DA:795,0
DA:800,0
DA:823,0
DA:824,0
DA:899,0
DA:962,0
DA:967,0
DA:1094,0
DA:1180,0
DA:1375,0
LF:20
LH:0
end_of_record
TN:
SF:/Applications/Xcode.app/Contents/Developer/Toolchains/XcodeDefault.xctoolchain/usr/include/c++/v1/memory
FN:988,_ZNSt3__114pointer_traitsIPNS_15__tree_end_nodeIPNS_16__tree_node_baseIPvEEEEE10pointer_toERS6_
FN:988,_ZNSt3__114pointer_traitsIPKcE10pointer_toERS1_
FN:988,_ZNSt3__114pointer_traitsIPNS_4pairIKPKN5boost6system14error_categoryENS_10unique_ptrINS3_6detail12std_categoryENS_14default_deleteISA_EEEEEEE10pointer_toERSE_
FN:988,_ZNSt3__114pointer_traitsIPcE10pointer_toERc
FN:988,_ZNSt3__114pointer_traitsIPNS_12__value_typeIPKN5boost6system14error_categoryENS_10unique_ptrINS3_6detail12std_categoryENS_14default_deleteIS9_EEEEEEE10pointer_toERSD_
FN:1106,_ZNSt3__1L16__to_raw_pointerIN5boost2io6detail11format_itemIcNS_11char_traitsIcEENS_9allocatorIcEEEEEEPT_SB_
FN:1106,_ZNSt3__1L16__to_raw_pointerIKmEEPT_S3_
FN:1106,_ZNSt3__1L16__to_raw_pointerINS_12basic_stringIcNS_11char_traitsIcEENS_9allocatorIcEEEEEEPT_S8_
FN:1106,_ZNSt3__1L16__to_raw_pointerIcEEPT_S2_
FN:1106,_ZNSt3__1L16__to_raw_pointerI6OpcodeEEPT_S3_
FN:1106,_ZNSt3__1L16__to_raw_pointerIhEEPT_S2_
FN:1106,_ZNSt3__1L16__to_raw_pointerIKcEEPT_S3_
FN:1106,_ZNSt3__1L16__to_raw_pointerImEEPT_S2_
FN:1546,_ZNSt3__116allocator_traitsINS_9allocatorINS_12basic_stringIcNS_11char_traitsIcEENS1_IcEEEEEEE8allocateERS7_m
FN:1546,_ZNSt3__116allocator_traitsINS_9allocatorINS_11__tree_nodeINS_12__value_typeIPKN5boost6system14error_categoryENS_10unique_ptrINS5_6detail12std_categoryENS_14default_deleteISB_EEEEEEPvEEEEE8allocateERSI_m
FN:1546,_ZNSt3__116allocator_traitsINS_9allocatorImEEE8allocateERS2_m
FN:1546,_ZNSt3__116allocator_traitsINS_9allocatorIN5boost2io6detail11format_itemIcNS_11char_traitsIcEENS1_IcEEEEEEE8allocateERSA_m
FN:1546,_ZNSt3__116allocator_traitsINS_9allocatorI6OpcodeEEE8allocateERS3_m
FN:1546,_ZNSt3__116allocator_traitsINS_9allocatorIhEEE8allocateERS2_m
FN:1546,_ZNSt3__116allocator_traitsINS_9allocatorIcEEE8allocateERS2_m
FN:1554,_ZNSt3__116allocator_traitsINS_9allocatorINS_12basic_stringIcNS_11char_traitsIcEENS1_IcEEEEEEE10deallocateERS7_PS6_m
FN:1554,_ZNSt3__116allocator_traitsINS_9allocatorImEEE10deallocateERS2_Pmm
FN:1554,_ZNSt3__116allocator_traitsINS_9allocatorIcEEE10deallocateERS2_Pcm
FN:1554,_ZNSt3__116allocator_traitsINS_9allocatorINS_11__tree_nodeINS_12__value_typeIPKN5boost6system14error_categoryENS_10unique_ptrINS5_6detail12std_categoryENS_14default_deleteISB_EEEEEEPvEEEEE10deallocateERSI_PSH_m
FN:1554,_ZNSt3__116allocator_traitsINS_9allocatorIN5boost2io6detail11format_itemIcNS_11char_traitsIcEENS1_IcEEEEEEE10deallocateERSA_PS9_m
FN:1554,_ZNSt3__116allocator_traitsINS_9allocatorIhEEE10deallocateERS2_Phm
FN:1554,_ZNSt3__116allocator_traitsINS_9allocatorI6OpcodeEEE10deallocateERS3_PS2_m
FN:1560,_ZNSt3__116allocator_traitsINS_9allocatorIN5boost2io6detail11format_itemIcNS_11char_traitsIcEENS1_IcEEEEEEE9constructIS9_JRKS9_EEEvRSA_PT_DpOT0_
FN:1560,_ZNSt3__116allocator_traitsINS_9allocatorIhEEE9constructIhJRKhEEEvRS2_PT_DpOT0_
FN:1560,_ZNSt3__116allocator_traitsINS_9allocatorI6OpcodeEEE9constructIS2_JS2_EEEvRS3_PT_DpOT0_
FN:1560,_ZNSt3__116allocator_traitsINS_9allocatorIN5boost2io6detail11format_itemIcNS_11char_traitsIcEENS1_IcEEEEEEE9constructIS9_JS9_EEEvRSA_PT_DpOT0_
FN:1560,_ZNSt3__116allocator_traitsINS_9allocatorINS_12basic_stringIcNS_11char_traitsIcEENS1_IcEEEEEEE9constructIS6_JRS6_EEEvRS7_PT_DpOT0_
FN:1560,_ZNSt3__116allocator_traitsINS_9allocatorINS_12basic_stringIcNS_11char_traitsIcEENS1_IcEEEEEEE9constructIS6_JRKS6_EEEvRS7_PT_DpOT0_
FN:1560,_ZNSt3__116allocator_traitsINS_9allocatorI6OpcodeEEE9constructIS2_JRKS2_EEEvRS3_PT_DpOT0_
FN:1560,_ZNSt3__116allocator_traitsINS_9allocatorINS_12basic_stringIcNS_11char_traitsIcEENS1_IcEEEEEEE9constructIS6_JS6_EEEvRS7_PT_DpOT0_
FN:1560,_ZNSt3__116allocator_traitsINS_9allocatorINS_11__tree_nodeINS_12__value_typeIPKN5boost6system14error_categoryENS_10unique_ptrINS5_6detail12std_categoryENS_14default_deleteISB_EEEEEEPvEEEEE9constructINS_4pairIKS8_SE_EEJSN_EEEvRSI_PT_DpOT0_
FN:1560,_ZNSt3__116allocator_traitsINS_9allocatorIhEEE9constructIhJhEEEvRS2_PT_DpOT0_
FN:1595,_ZNSt3__116allocator_traitsINS_9allocatorINS_11__tree_nodeINS_12__value_typeIPKN5boost6system14error_categoryENS_10unique_ptrINS5_6detail12std_categoryENS_14default_deleteISB_EEEEEEPvEEEEE7destroyINS_4pairIKS8_SE_EEEEvRSI_PT_
FN:1595,_ZNSt3__116allocator_traitsINS_9allocatorINS_12basic_stringIcNS_11char_traitsIcEENS1_IcEEEEEEE7destroyIS6_EEvRS7_PT_
FN:1595,_ZNSt3__116allocator_traitsINS_9allocatorIN5boost2io6detail11format_itemIcNS_11char_traitsIcEENS1_IcEEEEEEE7destroyIS9_EEvRSA_PT_
FN:1595,_ZNSt3__116allocator_traitsINS_9allocatorI6OpcodeEEE7destroyIS2_EEvRS3_PT_
FN:1595,_ZNSt3__116allocator_traitsINS_9allocatorIhEEE7destroyIhEEvRS2_PT_
FN:1599,_ZNSt3__116allocator_traitsINS_9allocatorINS_12basic_stringIcNS_11char_traitsIcEENS1_IcEEEEEEE8max_sizeERKS7_
FN:1599,_ZNSt3__116allocator_traitsINS_9allocatorImEEE8max_sizeERKS2_
FN:1599,_ZNSt3__116allocator_traitsINS_9allocatorIhEEE8max_sizeERKS2_
FN:1599,_ZNSt3__116allocator_traitsINS_9allocatorIcEEE8max_sizeERKS2_
FN:1599,_ZNSt3__116allocator_traitsINS_9allocatorI6OpcodeEEE8max_sizeERKS3_
FN:1599,_ZNSt3__116allocator_traitsINS_9allocatorIN5boost2io6detail11format_itemIcNS_11char_traitsIcEENS1_IcEEEEEEE8max_sizeERKSA_
FN:1604,_ZNSt3__116allocator_traitsINS_9allocatorINS_12basic_stringIcNS_11char_traitsIcEENS1_IcEEEEEEE37select_on_container_copy_constructionERKS7_
FN:1604,_ZNSt3__116allocator_traitsINS_9allocatorIhEEE37select_on_container_copy_constructionERKS2_
FN:1643,_ZNSt3__116allocator_traitsINS_9allocatorINS_12basic_stringIcNS_11char_traitsIcEENS1_IcEEEEEEE25__construct_range_forwardIPS6_SA_EEvRS7_T_SC_RT0_
FN:1662,_ZNSt3__116allocator_traitsINS_9allocatorIhEEE25__construct_range_forwardIhhhhEENS_9enable_ifIXaaaasr31is_trivially_move_constructibleIT0_EE5valuesr7is_sameIT1_T2_EE5valueooL_ZNS_17integral_constantIbLb1EE5valueEEntsr15__has_constructIS2_PS6_RT_EE5valueEvE4typeERS2_PSC_SH_RSB_
FN:1662,_ZNSt3__116allocator_traitsINS_9allocatorIhEEE25__construct_range_forwardIKhhhhEENS_9enable_ifIXaaaasr31is_trivially_move_constructibleIT0_EE5valuesr7is_sameIT1_T2_EE5valueooL_ZNS_17integral_constantIbLb1EE5valueEEntsr15__has_constructIS2_PS7_RT_EE5valueEvE4typeERS2_PSD_SI_RSC_
FN:1676,_ZNSt3__116allocator_traitsINS_9allocatorINS_12basic_stringIcNS_11char_traitsIcEENS1_IcEEEEEEE20__construct_backwardIPS6_EEvRS7_T_SC_RSC_
FN:1676,_ZNSt3__116allocator_traitsINS_9allocatorIN5boost2io6detail11format_itemIcNS_11char_traitsIcEENS1_IcEEEEEEE20__construct_backwardIPS9_EEvRSA_T_SF_RSF_
FN:1676,_ZNSt3__116allocator_traitsINS_9allocatorI6OpcodeEEE20__construct_backwardIPS2_EEvRS3_T_S8_RS8_
FN:1695,_ZNSt3__116allocator_traitsINS_9allocatorIhEEE20__construct_backwardIhEENS_9enable_ifIXaaooL_ZNS_17integral_constantIbLb1EE5valueEEntsr15__has_constructIS2_PT_S8_EE5valuesr31is_trivially_move_constructibleIS8_EE5valueEvE4typeERS2_S9_S9_RS9_
FN:1717,_ZNSt3__116allocator_traitsINS_9allocatorIhEEE11__constructIhJRKhEEEvNS_17integral_constantIbLb1EEERS2_PT_DpOT0_
FN:1717,_ZNSt3__116allocator_traitsINS_9allocatorI6OpcodeEEE11__constructIS2_JRKS2_EEEvNS_17integral_constantIbLb1EEERS3_PT_DpOT0_
FN:1717,_ZNSt3__116allocator_traitsINS_9allocatorIN5boost2io6detail11format_itemIcNS_11char_traitsIcEENS1_IcEEEEEEE11__constructIS9_JRKS9_EEEvNS_17integral_constantIbLb1EEERSA_PT_DpOT0_
FN:1717,_ZNSt3__116allocator_traitsINS_9allocatorI6OpcodeEEE11__constructIS2_JS2_EEEvNS_17integral_constantIbLb1EEERS3_PT_DpOT0_
FN:1717,_ZNSt3__116allocator_traitsINS_9allocatorINS_12basic_stringIcNS_11char_traitsIcEENS1_IcEEEEEEE11__constructIS6_JRKS6_EEEvNS_17integral_constantIbLb1EEERS7_PT_DpOT0_
FN:1717,_ZNSt3__116allocator_traitsINS_9allocatorINS_11__tree_nodeINS_12__value_typeIPKN5boost6system14error_categoryENS_10unique_ptrINS5_6detail12std_categoryENS_14default_deleteISB_EEEEEEPvEEEEE11__constructINS_4pairIKS8_SE_EEJSN_EEEvNS_17integral_constantIbLb1EEERSI_PT_DpOT0_
FN:1717,_ZNSt3__116allocator_traitsINS_9allocatorINS_12basic_stringIcNS_11char_traitsIcEENS1_IcEEEEEEE11__constructIS6_JS6_EEEvNS_17integral_constantIbLb1EEERS7_PT_DpOT0_
FN:1717,_ZNSt3__116allocator_traitsINS_9allocatorIN5boost2io6detail11format_itemIcNS_11char_traitsIcEENS1_IcEEEEEEE11__constructIS9_JS9_EEEvNS_17integral_constantIbLb1EEERSA_PT_DpOT0_
FN:1717,_ZNSt3__116allocator_traitsINS_9allocatorIhEEE11__constructIhJhEEEvNS_17integral_constantIbLb1EEERS2_PT_DpOT0_
FN:1717,_ZNSt3__116allocator_traitsINS_9allocatorINS_12basic_stringIcNS_11char_traitsIcEENS1_IcEEEEEEE11__constructIS6_JRS6_EEEvNS_17integral_constantIbLb1EEERS7_PT_DpOT0_
FN:1742,_ZNSt3__116allocator_traitsINS_9allocatorI6OpcodeEEE9__destroyIS2_EEvNS_17integral_constantIbLb1EEERS3_PT_
FN:1742,_ZNSt3__116allocator_traitsINS_9allocatorIN5boost2io6detail11format_itemIcNS_11char_traitsIcEENS1_IcEEEEEEE9__destroyIS9_EEvNS_17integral_constantIbLb1EEERSA_PT_
FN:1742,_ZNSt3__116allocator_traitsINS_9allocatorIhEEE9__destroyIhEEvNS_17integral_constantIbLb1EEERS2_PT_
FN:1742,_ZNSt3__116allocator_traitsINS_9allocatorINS_12basic_stringIcNS_11char_traitsIcEENS1_IcEEEEEEE9__destroyIS6_EEvNS_17integral_constantIbLb1EEERS7_PT_
FN:1746,_ZNSt3__116allocator_traitsINS_9allocatorINS_11__tree_nodeINS_12__value_typeIPKN5boost6system14error_categoryENS_10unique_ptrINS5_6detail12std_categoryENS_14default_deleteISB_EEEEEEPvEEEEE9__destroyINS_4pairIKS8_SE_EEEEvNS_17integral_constantIbLb0EEERSI_PT_
FN:1752,_ZNSt3__116allocator_traitsINS_9allocatorIcEEE10__max_sizeENS_17integral_constantIbLb1EEERKS2_
FN:1752,_ZNSt3__116allocator_traitsINS_9allocatorINS_12basic_stringIcNS_11char_traitsIcEENS1_IcEEEEEEE10__max_sizeENS_17integral_constantIbLb1EEERKS7_
FN:1752,_ZNSt3__116allocator_traitsINS_9allocatorIN5boost2io6detail11format_itemIcNS_11char_traitsIcEENS1_IcEEEEEEE10__max_sizeENS_17integral_constantIbLb1EEERKSA_
FN:1752,_ZNSt3__116allocator_traitsINS_9allocatorImEEE10__max_sizeENS_17integral_constantIbLb1EEERKS2_
FN:1752,_ZNSt3__116allocator_traitsINS_9allocatorI6OpcodeEEE10__max_sizeENS_17integral_constantIbLb1EEERKS3_
FN:1752,_ZNSt3__116allocator_traitsINS_9allocatorIhEEE10__max_sizeENS_17integral_constantIbLb1EEERKS2_
FN:1764,_ZNSt3__116allocator_traitsINS_9allocatorINS_12basic_stringIcNS_11char_traitsIcEENS1_IcEEEEEEE39__select_on_container_copy_constructionENS_17integral_constantIbLb0EEERKS7_
FN:1764,_ZNSt3__116allocator_traitsINS_9allocatorIhEEE39__select_on_container_copy_constructionENS_17integral_constantIbLb0EEERKS2_
FN:1798,_ZNSt3__19allocatorIhEC2Ev
FN:1798,_ZNSt3__19allocatorIN5boost2io6detail11format_itemIcNS_11char_traitsIcEENS0_IcEEEEEC2Ev
FN:1798,_ZNSt3__19allocatorIcEC2Ev
FN:1798,_ZNSt3__19allocatorINS_12basic_stringIcNS_11char_traitsIcEENS0_IcEEEEEC2Ev
FN:1798,_ZNSt3__19allocatorINS_11__tree_nodeINS_12__value_typeIPKN5boost6system14error_categoryENS_10unique_ptrINS4_6detail12std_categoryENS_14default_deleteISA_EEEEEEPvEEEC2Ev
FN:1798,_ZNSt3__19allocatorI6OpcodeEC2Ev
FN:1798,_ZNSt3__19allocatorImEC2Ev
FN:1798,_ZNSt3__19allocatorIcEC1Ev
FN:1802,_ZNSt3__19allocatorIbEC1ImEERKNS0_IT_EE
FN:1802,_ZNSt3__19allocatorImEC1IbEERKNS0_IT_EE
FN:1802,_ZNSt3__19allocatorImEC2IbEERKNS0_IT_EE
FN:1802,_ZNSt3__19allocatorIbEC2ImEERKNS0_IT_EE
FN:1809,_ZNSt3__19allocatorIcE8allocateEmPKv
FN:1809,_ZNSt3__19allocatorINS_11__tree_nodeINS_12__value_typeIPKN5boost6system14error_categoryENS_10unique_ptrINS4_6detail12std_categoryENS_14default_deleteISA_EEEEEEPvEEE8allocateEmPKv
FN:1809,_ZNSt3__19allocatorINS_12basic_stringIcNS_11char_traitsIcEENS0_IcEEEEE8allocateEmPKv
FN:1809,_ZNSt3__19allocatorIN5boost2io6detail11format_itemIcNS_11char_traitsIcEENS0_IcEEEEE8allocateEmPKv
FN:1809,_ZNSt3__19allocatorImE8allocateEmPKv
FN:1809,_ZNSt3__19allocatorI6OpcodeE8allocateEmPKv
FN:1809,_ZNSt3__19allocatorIhE8allocateEmPKv
FN:1816,_ZNSt3__19allocatorIN5boost2io6detail11format_itemIcNS_11char_traitsIcEENS0_IcEEEEE10deallocateEPS8_m
FN:1816,_ZNSt3__19allocatorINS_12basic_stringIcNS_11char_traitsIcEENS0_IcEEEEE10deallocateEPS5_m
FN:1816,_ZNSt3__19allocatorI6OpcodeE10deallocateEPS1_m
FN:1816,_ZNSt3__19allocatorIhE10deallocateEPhm
FN:1816,_ZNSt3__19allocatorImE10deallocateEPmm
FN:1816,_ZNSt3__19allocatorIcE10deallocateEPcm
FN:1816,_ZNSt3__19allocatorINS_11__tree_nodeINS_12__value_typeIPKN5boost6system14error_categoryENS_10unique_ptrINS4_6detail12std_categoryENS_14default_deleteISA_EEEEEEPvEEE10deallocateEPSG_m
FN:1818,_ZNKSt3__19allocatorImE8max_sizeEv
FN:1818,_ZNKSt3__19allocatorINS_11__tree_nodeINS_12__value_typeIPKN5boost6system14error_categoryENS_10unique_ptrINS4_6detail12std_categoryENS_14default_deleteISA_EEEEEEPvEEE8max_sizeEv
FN:1818,_ZNKSt3__19allocatorIhE8max_sizeEv
FN:1818,_ZNKSt3__19allocatorI6OpcodeE8max_sizeEv
FN:1818,_ZNKSt3__19allocatorIcE8max_sizeEv
FN:1818,_ZNKSt3__19allocatorINS_12basic_stringIcNS_11char_traitsIcEENS0_IcEEEEE8max_sizeEv
FN:1818,_ZNKSt3__19allocatorIN5boost2io6detail11format_itemIcNS_11char_traitsIcEENS0_IcEEEEE8max_sizeEv
FN:1824,_ZNSt3__19allocatorIhE9constructIhJhEEEvPT_DpOT0_
FN:1824,_ZNSt3__19allocatorIhE9constructIhJRKhEEEvPT_DpOT0_
FN:1824,_ZNSt3__19allocatorINS_12basic_stringIcNS_11char_traitsIcEENS0_IcEEEEE9constructIS5_JRS5_EEEvPT_DpOT0_
FN:1824,_ZNSt3__19allocatorIN5boost2io6detail11format_itemIcNS_11char_traitsIcEENS0_IcEEEEE9constructIS8_JS8_EEEvPT_DpOT0_
FN:1824,_ZNSt3__19allocatorIN5boost2io6detail11format_itemIcNS_11char_traitsIcEENS0_IcEEEEE9constructIS8_JRKS8_EEEvPT_DpOT0_
FN:1824,_ZNSt3__19allocatorINS_12basic_stringIcNS_11char_traitsIcEENS0_IcEEEEE9constructIS5_JS5_EEEvPT_DpOT0_
FN:1824,_ZNSt3__19allocatorINS_11__tree_nodeINS_12__value_typeIPKN5boost6system14error_categoryENS_10unique_ptrINS4_6detail12std_categoryENS_14default_deleteISA_EEEEEEPvEEE9constructINS_4pairIKS7_SD_EEJSL_EEEvPT_DpOT0_
FN:1824,_ZNSt3__19allocatorI6OpcodeE9constructIS1_JRKS1_EEEvPT_DpOT0_
FN:1824,_ZNSt3__19allocatorI6OpcodeE9constructIS1_JS1_EEEvPT_DpOT0_
FN:1824,_ZNSt3__19allocatorINS_12basic_stringIcNS_11char_traitsIcEENS0_IcEEEEE9constructIS5_JRKS5_EEEvPT_DpOT0_
FN:1881,_ZNSt3__19allocatorIhE7destroyEPh
FN:1881,_ZNSt3__19allocatorIN5boost2io6detail11format_itemIcNS_11char_traitsIcEENS0_IcEEEEE7destroyEPS8_
FN:1881,_ZNSt3__19allocatorINS_12basic_stringIcNS_11char_traitsIcEENS0_IcEEEEE7destroyEPS5_
FN:1881,_ZNSt3__19allocatorI6OpcodeE7destroyEPS1_
FN:2140,_ZNSt3__122__compressed_pair_elemINS_15__tree_end_nodeIPNS_16__tree_node_baseIPvEEEELi0ELb0EEC2Ev
FN:2140,_ZNSt3__122__compressed_pair_elemINS_12basic_stringIcNS_11char_traitsIcEENS_9allocatorIcEEE5__repELi0ELb0EEC2Ev
FN:2147,_ZNSt3__122__compressed_pair_elemIRNS_9allocatorIN5boost2io6detail11format_itemIcNS_11char_traitsIcEENS1_IcEEEEEELi1ELb0EEC2ISB_vEEOT_
FN:2147,_ZNSt3__122__compressed_pair_elemIP3CPULi0ELb0EEC2IRS2_vEEOT_
FN:2147,_ZNSt3__122__compressed_pair_elemIPN5boost6system6detail12std_categoryELi0ELb0EEC2IS5_vEEOT_
FN:2147,_ZNSt3__122__compressed_pair_elemIPN5boost2io6detail11format_itemIcNS_11char_traitsIcEENS_9allocatorIcEEEELi0ELb0EEC2IDnvEEOT_
FN:2147,_ZNSt3__122__compressed_pair_elemIP3RAMLi0ELb0EEC2IRS2_vEEOT_
FN:2147,_ZNSt3__122__compressed_pair_elemIPNS_12basic_stringIcNS_11char_traitsIcEENS_9allocatorIcEEEELi0ELb0EEC2IDnvEEOT_
FN:2147,_ZNSt3__122__compressed_pair_elemIPNS_11__tree_nodeINS_12__value_typeIPKN5boost6system14error_categoryENS_10unique_ptrINS4_6detail12std_categoryENS_14default_deleteISA_EEEEEEPvEELi0ELb0EEC2IRSH_vEEOT_
FN:2147,_ZNSt3__122__compressed_pair_elemIRNS_9allocatorIhEELi1ELb0EEC2IS3_vEEOT_
FN:2147,_ZNSt3__122__compressed_pair_elemIRNS_9allocatorI6OpcodeEELi1ELb0EEC2IS4_vEEOT_
FN:2147,_ZNSt3__122__compressed_pair_elemINS_22__tree_node_destructorINS_9allocatorINS_11__tree_nodeINS_12__value_typeIPKN5boost6system14error_categoryENS_10unique_ptrINS6_6detail12std_categoryENS_14default_deleteISC_EEEEEEPvEEEEEELi1ELb0EEC2ISK_vEEOT_
FN:2147,_ZNSt3__122__compressed_pair_elemIPN5boost6system6detail12std_categoryELi0ELb0EEC2IRS5_vEEOT_
FN:2147,_ZNSt3__122__compressed_pair_elemIP7__sFILELi0ELb0EEC2IRS2_vEEOT_
FN:2147,_ZNSt3__122__compressed_pair_elemIRNS_9allocatorINS_12basic_stringIcNS_11char_traitsIcEENS1_IcEEEEEELi1ELb0EEC2IS8_vEEOT_
FN:2147,_ZNSt3__122__compressed_pair_elemIP8EmulatorLi0ELb0EEC2IRS2_vEEOT_
FN:2147,_ZNSt3__122__compressed_pair_elemIP6OpcodeLi0ELb0EEC2IDnvEEOT_
FN:2147,_ZNSt3__122__compressed_pair_elemIPhLi0ELb0EEC2IDnvEEOT_
FN:2147,_ZNSt3__122__compressed_pair_elemIPFiP7__sFILEELi1ELb0EEC2IS4_vEEOT_
FN:2147,_ZNSt3__122__compressed_pair_elemImLi0ELb0EEC2IivEEOT_
FN:2163,_ZNSt3__122__compressed_pair_elemIRNS_9allocatorINS_12basic_stringIcNS_11char_traitsIcEENS1_IcEEEEEELi1ELb0EE5__getEv
FN:2163,_ZNSt3__122__compressed_pair_elemINS_12basic_stringIcNS_11char_traitsIcEENS_9allocatorIcEEE5__repELi0ELb0EE5__getEv
FN:2163,_ZNSt3__122__compressed_pair_elemIPhLi0ELb0EE5__getEv
FN:2163,_ZNSt3__122__compressed_pair_elemIPNS_11__tree_nodeINS_12__value_typeIPKN5boost6system14error_categoryENS_10unique_ptrINS4_6detail12std_categoryENS_14default_deleteISA_EEEEEEPvEELi0ELb0EE5__getEv
FN:2163,_ZNSt3__122__compressed_pair_elemIP7__sFILELi0ELb0EE5__getEv
FN:2163,_ZNSt3__122__compressed_pair_elemImLi0ELb0EE5__getEv
FN:2163,_ZNSt3__122__compressed_pair_elemIPFiP7__sFILEELi1ELb0EE5__getEv
FN:2163,_ZNSt3__122__compressed_pair_elemINS_22__tree_node_destructorINS_9allocatorINS_11__tree_nodeINS_12__value_typeIPKN5boost6system14error_categoryENS_10unique_ptrINS6_6detail12std_categoryENS_14default_deleteISC_EEEEEEPvEEEEEELi1ELb0EE5__getEv
FN:2163,_ZNSt3__122__compressed_pair_elemIP3RAMLi0ELb0EE5__getEv
FN:2163,_ZNSt3__122__compressed_pair_elemIRNS_9allocatorI6OpcodeEELi1ELb0EE5__getEv
FN:2163,_ZNSt3__122__compressed_pair_elemIRNS_9allocatorIN5boost2io6detail11format_itemIcNS_11char_traitsIcEENS1_IcEEEEEELi1ELb0EE5__getEv
FN:2163,_ZNSt3__122__compressed_pair_elemIP6OpcodeLi0ELb0EE5__getEv
FN:2163,_ZNSt3__122__compressed_pair_elemIP8EmulatorLi0ELb0EE5__getEv
FN:2163,_ZNSt3__122__compressed_pair_elemINS_15__tree_end_nodeIPNS_16__tree_node_baseIPvEEEELi0ELb0EE5__getEv
FN:2163,_ZNSt3__122__compressed_pair_elemIRNS_9allocatorIhEELi1ELb0EE5__getEv
FN:2163,_ZNSt3__122__compressed_pair_elemIPN5boost2io6detail11format_itemIcNS_11char_traitsIcEENS_9allocatorIcEEEELi0ELb0EE5__getEv
FN:2163,_ZNSt3__122__compressed_pair_elemIPN5boost6system6detail12std_categoryELi0ELb0EE5__getEv
FN:2163,_ZNSt3__122__compressed_pair_elemIP3CPULi0ELb0EE5__getEv
FN:2163,_ZNSt3__122__compressed_pair_elemIPNS_12basic_stringIcNS_11char_traitsIcEENS_9allocatorIcEEEELi0ELb0EE5__getEv
FN:2165,_ZNKSt3__122__compressed_pair_elemIPN5boost6system6detail12std_categoryELi0ELb0EE5__getEv
FN:2165,_ZNKSt3__122__compressed_pair_elemImLi0ELb0EE5__getEv
FN:2165,_ZNKSt3__122__compressed_pair_elemINS_12basic_stringIcNS_11char_traitsIcEENS_9allocatorIcEEE5__repELi0ELb0EE5__getEv
FN:2165,_ZNKSt3__122__compressed_pair_elemIPNS_12basic_stringIcNS_11char_traitsIcEENS_9allocatorIcEEEELi0ELb0EE5__getEv
FN:2165,_ZNKSt3__122__compressed_pair_elemIP3RAMLi0ELb0EE5__getEv
FN:2165,_ZNKSt3__122__compressed_pair_elemIP3CPULi0ELb0EE5__getEv
FN:2165,_ZNKSt3__122__compressed_pair_elemIP8EmulatorLi0ELb0EE5__getEv
FN:2165,_ZNKSt3__122__compressed_pair_elemIPhLi0ELb0EE5__getEv
FN:2165,_ZNKSt3__122__compressed_pair_elemIPN5boost2io6detail11format_itemIcNS_11char_traitsIcEENS_9allocatorIcEEEELi0ELb0EE5__getEv
FN:2165,_ZNKSt3__122__compressed_pair_elemIP6OpcodeLi0ELb0EE5__getEv
FN:2165,_ZNKSt3__122__compressed_pair_elemINS_15__tree_end_nodeIPNS_16__tree_node_baseIPvEEEELi0ELb0EE5__getEv
FN:2165,_ZNKSt3__122__compressed_pair_elemIPNS_11__tree_nodeINS_12__value_typeIPKN5boost6system14error_categoryENS_10unique_ptrINS4_6detail12std_categoryENS_14default_deleteISA_EEEEEEPvEELi0ELb0EE5__getEv
FN:2179,_ZNSt3__122__compressed_pair_elemINS_9allocatorI6OpcodeEELi1ELb1EEC2Ev
FN:2179,_ZNSt3__122__compressed_pair_elemINS_9allocatorIhEELi1ELb1EEC2Ev
FN:2179,_ZNSt3__122__compressed_pair_elemINS_9allocatorImEELi1ELb1EEC2Ev
FN:2179,_ZNSt3__122__compressed_pair_elemINS_9allocatorIN5boost2io6detail11format_itemIcNS_11char_traitsIcEENS1_IcEEEEEELi1ELb1EEC2Ev
FN:2179,_ZNSt3__122__compressed_pair_elemINS_9allocatorIcEELi1ELb1EEC2Ev
FN:2179,_ZNSt3__122__compressed_pair_elemINS_9allocatorINS_11__tree_nodeINS_12__value_typeIPKN5boost6system14error_categoryENS_10unique_ptrINS5_6detail12std_categoryENS_14default_deleteISB_EEEEEEPvEEEELi1ELb1EEC2Ev
FN:2179,_ZNSt3__122__compressed_pair_elemINS_9allocatorINS_12basic_stringIcNS_11char_traitsIcEENS1_IcEEEEEELi1ELb1EEC2Ev
FN:2186,_ZNSt3__122__compressed_pair_elemINS_9allocatorImEELi1ELb1EEC2IS2_vEEOT_
FN:2186,_ZNSt3__122__compressed_pair_elemINS_9allocatorINS_12basic_stringIcNS_11char_traitsIcEENS1_IcEEEEEELi1ELb1EEC2IS7_vEEOT_
FN:2186,_ZNSt3__122__compressed_pair_elemINS_19__map_value_compareIPKN5boost6system14error_categoryENS_12__value_typeIS6_NS_10unique_ptrINS3_6detail12std_categoryENS_14default_deleteISA_EEEEEENS9_12cat_ptr_lessELb1EEELi1ELb1EEC2IRKSG_vEEOT_
FN:2186,_ZNSt3__122__compressed_pair_elemINS_9allocatorIhEELi1ELb1EEC2IS2_vEEOT_
FN:2186,_ZNSt3__122__compressed_pair_elemINS_9allocatorIcEELi1ELb1EEC2IRKS2_vEEOT_
FN:2186,_ZNSt3__122__compressed_pair_elemINS_14default_deleteIN5boost6system6detail12std_categoryEEELi1ELb1EEC2IS6_vEEOT_
FN:2202,_ZNSt3__122__compressed_pair_elemINS_9allocatorINS_11__tree_nodeINS_12__value_typeIPKN5boost6system14error_categoryENS_10unique_ptrINS5_6detail12std_categoryENS_14default_deleteISB_EEEEEEPvEEEELi1ELb1EE5__getEv
FN:2202,_ZNSt3__122__compressed_pair_elemINS_14default_deleteI8EmulatorEELi1ELb1EE5__getEv
FN:2202,_ZNSt3__122__compressed_pair_elemINS_9allocatorI6OpcodeEELi1ELb1EE5__getEv
FN:2202,_ZNSt3__122__compressed_pair_elemINS_9allocatorImEELi1ELb1EE5__getEv
FN:2202,_ZNSt3__122__compressed_pair_elemINS_9allocatorIcEELi1ELb1EE5__getEv
FN:2202,_ZNSt3__122__compressed_pair_elemINS_14default_deleteI3CPUEELi1ELb1EE5__getEv
FN:2202,_ZNSt3__122__compressed_pair_elemINS_9allocatorINS_12basic_stringIcNS_11char_traitsIcEENS1_IcEEEEEELi1ELb1EE5__getEv
FN:2202,_ZNSt3__122__compressed_pair_elemINS_14default_deleteI3RAMEELi1ELb1EE5__getEv
FN:2202,_ZNSt3__122__compressed_pair_elemINS_9allocatorIN5boost2io6detail11format_itemIcNS_11char_traitsIcEENS1_IcEEEEEELi1ELb1EE5__getEv
FN:2202,_ZNSt3__122__compressed_pair_elemINS_9allocatorIhEELi1ELb1EE5__getEv
FN:2202,_ZNSt3__122__compressed_pair_elemINS_19__map_value_compareIPKN5boost6system14error_categoryENS_12__value_typeIS6_NS_10unique_ptrINS3_6detail12std_categoryENS_14default_deleteISA_EEEEEENS9_12cat_ptr_lessELb1EEELi1ELb1EE5__getEv
FN:2202,_ZNSt3__122__compressed_pair_elemINS_14default_deleteIN5boost6system6detail12std_categoryEEELi1ELb1EE5__getEv
FN:2204,_ZNKSt3__122__compressed_pair_elemINS_9allocatorIcEELi1ELb1EE5__getEv
FN:2204,_ZNKSt3__122__compressed_pair_elemINS_9allocatorImEELi1ELb1EE5__getEv
FN:2204,_ZNKSt3__122__compressed_pair_elemINS_9allocatorIN5boost2io6detail11format_itemIcNS_11char_traitsIcEENS1_IcEEEEEELi1ELb1EE5__getEv
FN:2204,_ZNKSt3__122__compressed_pair_elemINS_9allocatorIhEELi1ELb1EE5__getEv
FN:2204,_ZNKSt3__122__compressed_pair_elemINS_9allocatorI6OpcodeEELi1ELb1EE5__getEv
FN:2204,_ZNKSt3__122__compressed_pair_elemINS_9allocatorINS_12basic_stringIcNS_11char_traitsIcEENS1_IcEEEEEELi1ELb1EE5__getEv
FN:2234,_ZNSt3__117__compressed_pairINS_15__tree_end_nodeIPNS_16__tree_node_baseIPvEEEENS_9allocatorINS_11__tree_nodeINS_12__value_typeIPKN5boost6system14error_categoryENS_10unique_ptrINSB_6detail12std_categoryENS_14default_deleteISH_EEEEEES3_EEEEEC2ILb1EvEEv
FN:2234,_ZNSt3__117__compressed_pairINS_15__tree_end_nodeIPNS_16__tree_node_baseIPvEEEENS_9allocatorINS_11__tree_nodeINS_12__value_typeIPKN5boost6system14error_categoryENS_10unique_ptrINSB_6detail12std_categoryENS_14default_deleteISH_EEEEEES3_EEEEEC1ILb1EvEEv
FN:2234,_ZNSt3__117__compressed_pairINS_12basic_stringIcNS_11char_traitsIcEENS_9allocatorIcEEE5__repES5_EC2ILb1EvEEv
FN:2234,_ZNSt3__117__compressed_pairINS_12basic_stringIcNS_11char_traitsIcEENS_9allocatorIcEEE5__repES5_EC1ILb1EvEEv
FN:2240,_ZNSt3__117__compressed_pairIP3RAMNS_14default_deleteIS1_EEEC2IRS2_Lb1EEEOT_
FN:2240,_ZNSt3__117__compressed_pairImNS_9allocatorImEEEC2IiLb1EEEOT_
FN:2240,_ZNSt3__117__compressed_pairIP3CPUNS_14default_deleteIS1_EEEC2IRS2_Lb1EEEOT_
FN:2240,_ZNSt3__117__compressed_pairIP8EmulatorNS_14default_deleteIS1_EEEC1IRS2_Lb1EEEOT_
FN:2240,_ZNSt3__117__compressed_pairIPN5boost6system6detail12std_categoryENS_14default_deleteIS4_EEEC2IRS5_Lb1EEEOT_
FN:2240,_ZNSt3__117__compressed_pairIP6OpcodeNS_9allocatorIS1_EEEC2IDnLb1EEEOT_
FN:2240,_ZNSt3__117__compressed_pairIPNS_12basic_stringIcNS_11char_traitsIcEENS_9allocatorIcEEEENS4_IS6_EEEC1IDnLb1EEEOT_
FN:2240,_ZNSt3__117__compressed_pairIPN5boost6system6detail12std_categoryENS_14default_deleteIS4_EEEC1IRS5_Lb1EEEOT_
FN:2240,_ZNSt3__117__compressed_pairIP3RAMNS_14default_deleteIS1_EEEC1IRS2_Lb1EEEOT_
FN:2240,_ZNSt3__117__compressed_pairIPNS_12basic_stringIcNS_11char_traitsIcEENS_9allocatorIcEEEENS4_IS6_EEEC2IDnLb1EEEOT_
FN:2240,_ZNSt3__117__compressed_pairIPN5boost2io6detail11format_itemIcNS_11char_traitsIcEENS_9allocatorIcEEEENS7_IS9_EEEC2IDnLb1EEEOT_
FN:2240,_ZNSt3__117__compressed_pairIP8EmulatorNS_14default_deleteIS1_EEEC2IRS2_Lb1EEEOT_
FN:2240,_ZNSt3__117__compressed_pairIP3CPUNS_14default_deleteIS1_EEEC1IRS2_Lb1EEEOT_
FN:2240,_ZNSt3__117__compressed_pairIP6OpcodeNS_9allocatorIS1_EEEC1IDnLb1EEEOT_
FN:2240,_ZNSt3__117__compressed_pairImNS_9allocatorImEEEC1IiLb1EEEOT_
FN:2240,_ZNSt3__117__compressed_pairIPhNS_9allocatorIhEEEC2IDnLb1EEEOT_
FN:2240,_ZNSt3__117__compressed_pairIPhNS_9allocatorIhEEEC1IDnLb1EEEOT_
FN:2240,_ZNSt3__117__compressed_pairIPN5boost2io6detail11format_itemIcNS_11char_traitsIcEENS_9allocatorIcEEEENS7_IS9_EEEC1IDnLb1EEEOT_
FN:2245,_ZNSt3__117__compressed_pairINS_12basic_stringIcNS_11char_traitsIcEENS_9allocatorIcEEE5__repES5_EC2IRKS5_EENS_12__second_tagEOT_
FN:2245,_ZNSt3__117__compressed_pairINS_12basic_stringIcNS_11char_traitsIcEENS_9allocatorIcEEE5__repES5_EC1IRKS5_EENS_12__second_tagEOT_
FN:2250,_ZNSt3__117__compressed_pairIP7__sFILEPFiS2_EEC1IRS2_S4_EEOT_OT0_
FN:2250,_ZNSt3__117__compressed_pairImNS_9allocatorImEEEC1IiS2_EEOT_OT0_
FN:2250,_ZNSt3__117__compressed_pairIPN5boost6system6detail12std_categoryENS_14default_deleteIS4_EEEC1IS5_S7_EEOT_OT0_
FN:2250,_ZNSt3__117__compressed_pairIPNS_11__tree_nodeINS_12__value_typeIPKN5boost6system14error_categoryENS_10unique_ptrINS4_6detail12std_categoryENS_14default_deleteISA_EEEEEEPvEENS_22__tree_node_destructorINS_9allocatorISG_EEEEEC2IRSH_SL_EEOT_OT0_
FN:2250,_ZNSt3__117__compressed_pairIPNS_12basic_stringIcNS_11char_traitsIcEENS_9allocatorIcEEEENS4_IS6_EEEC2IDnS8_EEOT_OT0_
FN:2250,_ZNSt3__117__compressed_pairIPNS_12basic_stringIcNS_11char_traitsIcEENS_9allocatorIcEEEERNS4_IS6_EEEC2IDnS9_EEOT_OT0_
FN:2250,_ZNSt3__117__compressed_pairIP7__sFILEPFiS2_EEC2IRS2_S4_EEOT_OT0_
FN:2250,_ZNSt3__117__compressed_pairIPNS_11__tree_nodeINS_12__value_typeIPKN5boost6system14error_categoryENS_10unique_ptrINS4_6detail12std_categoryENS_14default_deleteISA_EEEEEEPvEENS_22__tree_node_destructorINS_9allocatorISG_EEEEEC1IRSH_SL_EEOT_OT0_
FN:2250,_ZNSt3__117__compressed_pairIP6OpcodeRNS_9allocatorIS1_EEEC2IDnS5_EEOT_OT0_
FN:2250,_ZNSt3__117__compressed_pairImNS_19__map_value_compareIPKN5boost6system14error_categoryENS_12__value_typeIS6_NS_10unique_ptrINS3_6detail12std_categoryENS_14default_deleteISA_EEEEEENS9_12cat_ptr_lessELb1EEEEC2IiRKSG_EEOT_OT0_
FN:2250,_ZNSt3__117__compressed_pairIPNS_12basic_stringIcNS_11char_traitsIcEENS_9allocatorIcEEEERNS4_IS6_EEEC1IDnS9_EEOT_OT0_
FN:2250,_ZNSt3__117__compressed_pairIPhNS_9allocatorIhEEEC2IDnS3_EEOT_OT0_
FN:2250,_ZNSt3__117__compressed_pairIPNS_12basic_stringIcNS_11char_traitsIcEENS_9allocatorIcEEEENS4_IS6_EEEC1IDnS8_EEOT_OT0_
FN:2250,_ZNSt3__117__compressed_pairIPhRNS_9allocatorIhEEEC1IDnS4_EEOT_OT0_
FN:2250,_ZNSt3__117__compressed_pairIPhNS_9allocatorIhEEEC1IDnS3_EEOT_OT0_
FN:2250,_ZNSt3__117__compressed_pairImNS_19__map_value_compareIPKN5boost6system14error_categoryENS_12__value_typeIS6_NS_10unique_ptrINS3_6detail12std_categoryENS_14default_deleteISA_EEEEEENS9_12cat_ptr_lessELb1EEEEC1IiRKSG_EEOT_OT0_
FN:2250,_ZNSt3__117__compressed_pairIP6OpcodeRNS_9allocatorIS1_EEEC1IDnS5_EEOT_OT0_
FN:2250,_ZNSt3__117__compressed_pairIPhRNS_9allocatorIhEEEC2IDnS4_EEOT_OT0_
FN:2250,_ZNSt3__117__compressed_pairImNS_9allocatorImEEEC2IiS2_EEOT_OT0_
FN:2250,_ZNSt3__117__compressed_pairIPN5boost2io6detail11format_itemIcNS_11char_traitsIcEENS_9allocatorIcEEEERNS7_IS9_EEEC1IDnSC_EEOT_OT0_
FN:2250,_ZNSt3__117__compressed_pairIPN5boost6system6detail12std_categoryENS_14default_deleteIS4_EEEC2IS5_S7_EEOT_OT0_
FN:2250,_ZNSt3__117__compressed_pairIPN5boost2io6detail11format_itemIcNS_11char_traitsIcEENS_9allocatorIcEEEERNS7_IS9_EEEC2IDnSC_EEOT_OT0_
FN:2279,_ZNSt3__117__compressed_pairIPNS_12basic_stringIcNS_11char_traitsIcEENS_9allocatorIcEEEENS4_IS6_EEE5firstEv
FN:2279,_ZNSt3__117__compressed_pairIP3RAMNS_14default_deleteIS1_EEE5firstEv
FN:2279,_ZNSt3__117__compressed_pairIP6OpcodeRNS_9allocatorIS1_EEE5firstEv
FN:2279,_ZNSt3__117__compressed_pairIP7__sFILEPFiS2_EE5firstEv
FN:2279,_ZNSt3__117__compressed_pairIPNS_12basic_stringIcNS_11char_traitsIcEENS_9allocatorIcEEEERNS4_IS6_EEE5firstEv
FN:2279,_ZNSt3__117__compressed_pairImNS_19__map_value_compareIPKN5boost6system14error_categoryENS_12__value_typeIS6_NS_10unique_ptrINS3_6detail12std_categoryENS_14default_deleteISA_EEEEEENS9_12cat_ptr_lessELb1EEEE5firstEv
FN:2279,_ZNSt3__117__compressed_pairIPhNS_9allocatorIhEEE5firstEv
FN:2279,_ZNSt3__117__compressed_pairImNS_9allocatorImEEE5firstEv
FN:2279,_ZNSt3__117__compressed_pairINS_15__tree_end_nodeIPNS_16__tree_node_baseIPvEEEENS_9allocatorINS_11__tree_nodeINS_12__value_typeIPKN5boost6system14error_categoryENS_10unique_ptrINSB_6detail12std_categoryENS_14default_deleteISH_EEEEEES3_EEEEE5firstEv
FN:2279,_ZNSt3__117__compressed_pairIP6OpcodeNS_9allocatorIS1_EEE5firstEv
FN:2279,_ZNSt3__117__compressed_pairIPN5boost2io6detail11format_itemIcNS_11char_traitsIcEENS_9allocatorIcEEEENS7_IS9_EEE5firstEv
FN:2279,_ZNSt3__117__compressed_pairIPNS_11__tree_nodeINS_12__value_typeIPKN5boost6system14error_categoryENS_10unique_ptrINS4_6detail12std_categoryENS_14default_deleteISA_EEEEEEPvEENS_22__tree_node_destructorINS_9allocatorISG_EEEEE5firstEv
FN:2279,_ZNSt3__117__compressed_pairIP3CPUNS_14default_deleteIS1_EEE5firstEv
FN:2279,_ZNSt3__117__compressed_pairIPN5boost6system6detail12std_categoryENS_14default_deleteIS4_EEE5firstEv
FN:2279,_ZNSt3__117__compressed_pairIPN5boost2io6detail11format_itemIcNS_11char_traitsIcEENS_9allocatorIcEEEERNS7_IS9_EEE5firstEv
FN:2279,_ZNSt3__117__compressed_pairIP8EmulatorNS_14default_deleteIS1_EEE5firstEv
FN:2279,_ZNSt3__117__compressed_pairIPhRNS_9allocatorIhEEE5firstEv
FN:2279,_ZNSt3__117__compressed_pairINS_12basic_stringIcNS_11char_traitsIcEENS_9allocatorIcEEE5__repES5_E5firstEv
FN:2284,_ZNKSt3__117__compressed_pairIP3CPUNS_14default_deleteIS1_EEE5firstEv
FN:2284,_ZNKSt3__117__compressed_pairINS_12basic_stringIcNS_11char_traitsIcEENS_9allocatorIcEEE5__repES5_E5firstEv
FN:2284,_ZNKSt3__117__compressed_pairIPNS_12basic_stringIcNS_11char_traitsIcEENS_9allocatorIcEEEERNS4_IS6_EEE5firstEv
FN:2284,_ZNKSt3__117__compressed_pairIPN5boost2io6detail11format_itemIcNS_11char_traitsIcEENS_9allocatorIcEEEERNS7_IS9_EEE5firstEv
FN:2284,_ZNKSt3__117__compressed_pairIPhNS_9allocatorIhEEE5firstEv
FN:2284,_ZNKSt3__117__compressed_pairIPN5boost2io6detail11format_itemIcNS_11char_traitsIcEENS_9allocatorIcEEEENS7_IS9_EEE5firstEv
FN:2284,_ZNKSt3__117__compressed_pairIPNS_12basic_stringIcNS_11char_traitsIcEENS_9allocatorIcEEEENS4_IS6_EEE5firstEv
FN:2284,_ZNKSt3__117__compressed_pairIP6OpcodeNS_9allocatorIS1_EEE5firstEv
FN:2284,_ZNKSt3__117__compressed_pairIP8EmulatorNS_14default_deleteIS1_EEE5firstEv
FN:2284,_ZNKSt3__117__compressed_pairImNS_9allocatorImEEE5firstEv
FN:2284,_ZNKSt3__117__compressed_pairIPN5boost6system6detail12std_categoryENS_14default_deleteIS4_EEE5firstEv
FN:2284,_ZNKSt3__117__compressed_pairIPNS_11__tree_nodeINS_12__value_typeIPKN5boost6system14error_categoryENS_10unique_ptrINS4_6detail12std_categoryENS_14default_deleteISA_EEEEEEPvEENS_22__tree_node_destructorINS_9allocatorISG_EEEEE5firstEv
FN:2284,_ZNKSt3__117__compressed_pairIP3RAMNS_14default_deleteIS1_EEE5firstEv
FN:2284,_ZNKSt3__117__compressed_pairINS_15__tree_end_nodeIPNS_16__tree_node_baseIPvEEEENS_9allocatorINS_11__tree_nodeINS_12__value_typeIPKN5boost6system14error_categoryENS_10unique_ptrINSB_6detail12std_categoryENS_14default_deleteISH_EEEEEES3_EEEEE5firstEv
FN:2284,_ZNKSt3__117__compressed_pairIPhRNS_9allocatorIhEEE5firstEv
FN:2284,_ZNKSt3__117__compressed_pairIP6OpcodeRNS_9allocatorIS1_EEE5firstEv
FN:2289,_ZNSt3__117__compressed_pairINS_12basic_stringIcNS_11char_traitsIcEENS_9allocatorIcEEE5__repES5_E6secondEv
FN:2289,_ZNSt3__117__compressed_pairIP3RAMNS_14default_deleteIS1_EEE6secondEv
FN:2289,_ZNSt3__117__compressed_pairIPhNS_9allocatorIhEEE6secondEv
FN:2289,_ZNSt3__117__compressed_pairIP3CPUNS_14default_deleteIS1_EEE6secondEv
FN:2289,_ZNSt3__117__compressed_pairIPNS_12basic_stringIcNS_11char_traitsIcEENS_9allocatorIcEEEERNS4_IS6_EEE6secondEv
FN:2289,_ZNSt3__117__compressed_pairIPN5boost2io6detail11format_itemIcNS_11char_traitsIcEENS_9allocatorIcEEEERNS7_IS9_EEE6secondEv
FN:2289,_ZNSt3__117__compressed_pairImNS_9allocatorImEEE6secondEv
FN:2289,_ZNSt3__117__compressed_pairIPN5boost2io6detail11format_itemIcNS_11char_traitsIcEENS_9allocatorIcEEEENS7_IS9_EEE6secondEv
FN:2289,_ZNSt3__117__compressed_pairIPNS_11__tree_nodeINS_12__value_typeIPKN5boost6system14error_categoryENS_10unique_ptrINS4_6detail12std_categoryENS_14default_deleteISA_EEEEEEPvEENS_22__tree_node_destructorINS_9allocatorISG_EEEEE6secondEv
FN:2289,_ZNSt3__117__compressed_pairIPNS_12basic_stringIcNS_11char_traitsIcEENS_9allocatorIcEEEENS4_IS6_EEE6secondEv
FN:2289,_ZNSt3__117__compressed_pairIPN5boost6system6detail12std_categoryENS_14default_deleteIS4_EEE6secondEv
FN:2289,_ZNSt3__117__compressed_pairImNS_19__map_value_compareIPKN5boost6system14error_categoryENS_12__value_typeIS6_NS_10unique_ptrINS3_6detail12std_categoryENS_14default_deleteISA_EEEEEENS9_12cat_ptr_lessELb1EEEE6secondEv
FN:2289,_ZNSt3__117__compressed_pairIP8EmulatorNS_14default_deleteIS1_EEE6secondEv
FN:2289,_ZNSt3__117__compressed_pairIP6OpcodeRNS_9allocatorIS1_EEE6secondEv
FN:2289,_ZNSt3__117__compressed_pairINS_15__tree_end_nodeIPNS_16__tree_node_baseIPvEEEENS_9allocatorINS_11__tree_nodeINS_12__value_typeIPKN5boost6system14error_categoryENS_10unique_ptrINSB_6detail12std_categoryENS_14default_deleteISH_EEEEEES3_EEEEE6secondEv
FN:2289,_ZNSt3__117__compressed_pairIPhRNS_9allocatorIhEEE6secondEv
FN:2289,_ZNSt3__117__compressed_pairIP7__sFILEPFiS2_EE6secondEv
FN:2289,_ZNSt3__117__compressed_pairIP6OpcodeNS_9allocatorIS1_EEE6secondEv
FN:2294,_ZNKSt3__117__compressed_pairImNS_9allocatorImEEE6secondEv
FN:2294,_ZNKSt3__117__compressed_pairIPN5boost2io6detail11format_itemIcNS_11char_traitsIcEENS_9allocatorIcEEEENS7_IS9_EEE6secondEv
FN:2294,_ZNKSt3__117__compressed_pairINS_12basic_stringIcNS_11char_traitsIcEENS_9allocatorIcEEE5__repES5_E6secondEv
FN:2294,_ZNKSt3__117__compressed_pairIPNS_12basic_stringIcNS_11char_traitsIcEENS_9allocatorIcEEEENS4_IS6_EEE6secondEv
FN:2294,_ZNKSt3__117__compressed_pairIPhNS_9allocatorIhEEE6secondEv
FN:2294,_ZNKSt3__117__compressed_pairIP6OpcodeNS_9allocatorIS1_EEE6secondEv
FN:2334,_ZNKSt3__114default_deleteI3RAMEclEPS1_
FN:2334,_ZNKSt3__114default_deleteI8EmulatorEclEPS1_
FN:2334,_ZNKSt3__114default_deleteIN5boost6system6detail12std_categoryEEclEPS4_
FN:2334,_ZNKSt3__114default_deleteI3CPUEclEPS1_
FN:2471,_ZNSt3__110unique_ptrI8EmulatorNS_14default_deleteIS1_EEEC1ILb1EvEEPS1_
FN:2471,_ZNSt3__110unique_ptrI3RAMNS_14default_deleteIS1_EEEC1ILb1EvEEPS1_
FN:2471,_ZNSt3__110unique_ptrIN5boost6system6detail12std_categoryENS_14default_deleteIS4_EEEC2ILb1EvEEPS4_
FN:2471,_ZNSt3__110unique_ptrI8EmulatorNS_14default_deleteIS1_EEEC2ILb1EvEEPS1_
FN:2471,_ZNSt3__110unique_ptrI3CPUNS_14default_deleteIS1_EEEC1ILb1EvEEPS1_
FN:2471,_ZNSt3__110unique_ptrI3RAMNS_14default_deleteIS1_EEEC2ILb1EvEEPS1_
FN:2471,_ZNSt3__110unique_ptrIN5boost6system6detail12std_categoryENS_14default_deleteIS4_EEEC1ILb1EvEEPS4_
FN:2471,_ZNSt3__110unique_ptrI3CPUNS_14default_deleteIS1_EEEC2ILb1EvEEPS1_
FN:2482,_ZNSt3__110unique_ptrI7__sFILEPFiPS1_EEC1ILb1EvEES2_NS_16__dependent_typeINS_27__unique_ptr_deleter_sfinaeIS4_EEXT_EE20__good_rval_ref_typeE
FN:2482,_ZNSt3__110unique_ptrINS_11__tree_nodeINS_12__value_typeIPKN5boost6system14error_categoryENS0_INS4_6detail12std_categoryENS_14default_deleteIS9_EEEEEEPvEENS_22__tree_node_destructorINS_9allocatorISF_EEEEEC1ILb1EvEEPSF_NS_16__dependent_typeINS_27__unique_ptr_deleter_sfinaeISJ_EEXT_EE20__good_rval_ref_typeE
FN:2482,_ZNSt3__110unique_ptrI7__sFILEPFiPS1_EEC2ILb1EvEES2_NS_16__dependent_typeINS_27__unique_ptr_deleter_sfinaeIS4_EEXT_EE20__good_rval_ref_typeE
FN:2482,_ZNSt3__110unique_ptrINS_11__tree_nodeINS_12__value_typeIPKN5boost6system14error_categoryENS0_INS4_6detail12std_categoryENS_14default_deleteIS9_EEEEEEPvEENS_22__tree_node_destructorINS_9allocatorISF_EEEEEC2ILb1EvEEPSF_NS_16__dependent_typeINS_27__unique_ptr_deleter_sfinaeISJ_EEXT_EE20__good_rval_ref_typeE
FN:2494,_ZNSt3__110unique_ptrIN5boost6system6detail12std_categoryENS_14default_deleteIS4_EEEC1EOS7_
FN:2494,_ZNSt3__110unique_ptrIN5boost6system6detail12std_categoryENS_14default_deleteIS4_EEEC2EOS7_
FN:2517,_ZNSt3__110unique_ptrI3CPUNS_14default_deleteIS1_EEEaSEOS4_
FN:2517,_ZNSt3__110unique_ptrI8EmulatorNS_14default_deleteIS1_EEEaSEOS4_
FN:2606,_ZNSt3__110unique_ptrI3CPUNS_14default_deleteIS1_EEED2Ev
FN:2606,_ZNSt3__110unique_ptrI7__sFILEPFiPS1_EED2Ev
FN:2606,_ZNSt3__110unique_ptrI3CPUNS_14default_deleteIS1_EEED1Ev
FN:2606,_ZNSt3__110unique_ptrINS_11__tree_nodeINS_12__value_typeIPKN5boost6system14error_categoryENS0_INS4_6detail12std_categoryENS_14default_deleteIS9_EEEEEEPvEENS_22__tree_node_destructorINS_9allocatorISF_EEEEED1Ev
FN:2606,_ZNSt3__110unique_ptrI3RAMNS_14default_deleteIS1_EEED2Ev
FN:2606,_ZNSt3__110unique_ptrI3RAMNS_14default_deleteIS1_EEED1Ev
FN:2606,_ZNSt3__110unique_ptrI8EmulatorNS_14default_deleteIS1_EEED2Ev
FN:2606,_ZNSt3__110unique_ptrI8EmulatorNS_14default_deleteIS1_EEED1Ev
FN:2606,_ZNSt3__110unique_ptrIN5boost6system6detail12std_categoryENS_14default_deleteIS4_EEED2Ev
FN:2606,_ZNSt3__110unique_ptrI7__sFILEPFiPS1_EED1Ev
FN:2606,_ZNSt3__110unique_ptrINS_11__tree_nodeINS_12__value_typeIPKN5boost6system14error_categoryENS0_INS4_6detail12std_categoryENS_14default_deleteIS9_EEEEEEPvEENS_22__tree_node_destructorINS_9allocatorISF_EEEEED2Ev
FN:2606,_ZNSt3__110unique_ptrIN5boost6system6detail12std_categoryENS_14default_deleteIS4_EEED1Ev
FN:2616,_ZNKSt3__110unique_ptrIN5boost6system6detail12std_categoryENS_14default_deleteIS4_EEEdeEv
FN:2620,_ZNKSt3__110unique_ptrI8EmulatorNS_14default_deleteIS1_EEEptEv
FN:2620,_ZNKSt3__110unique_ptrI3RAMNS_14default_deleteIS1_EEEptEv
FN:2620,_ZNKSt3__110unique_ptrI3CPUNS_14default_deleteIS1_EEEptEv
FN:2620,_ZNKSt3__110unique_ptrINS_11__tree_nodeINS_12__value_typeIPKN5boost6system14error_categoryENS0_INS4_6detail12std_categoryENS_14default_deleteIS9_EEEEEEPvEENS_22__tree_node_destructorINS_9allocatorISF_EEEEEptEv
FN:2624,_ZNKSt3__110unique_ptrINS_11__tree_nodeINS_12__value_typeIPKN5boost6system14error_categoryENS0_INS4_6detail12std_categoryENS_14default_deleteIS9_EEEEEEPvEENS_22__tree_node_destructorINS_9allocatorISF_EEEEE3getEv
FN:2628,_ZNSt3__110unique_ptrI3CPUNS_14default_deleteIS1_EEE11get_deleterEv
FN:2628,_ZNSt3__110unique_ptrI8EmulatorNS_14default_deleteIS1_EEE11get_deleterEv
FN:2628,_ZNSt3__110unique_ptrIN5boost6system6detail12std_categoryENS_14default_deleteIS4_EEE11get_deleterEv
FN:2628,_ZNSt3__110unique_ptrINS_11__tree_nodeINS_12__value_typeIPKN5boost6system14error_categoryENS0_INS4_6detail12std_categoryENS_14default_deleteIS9_EEEEEEPvEENS_22__tree_node_destructorINS_9allocatorISF_EEEEE11get_deleterEv
FN:2641,_ZNSt3__110unique_ptrIN5boost6system6detail12std_categoryENS_14default_deleteIS4_EEE7releaseEv
FN:2641,_ZNSt3__110unique_ptrI8EmulatorNS_14default_deleteIS1_EEE7releaseEv
FN:2641,_ZNSt3__110unique_ptrI3CPUNS_14default_deleteIS1_EEE7releaseEv
FN:2641,_ZNSt3__110unique_ptrI7__sFILEPFiPS1_EE7releaseEv
FN:2641,_ZNSt3__110unique_ptrINS_11__tree_nodeINS_12__value_typeIPKN5boost6system14error_categoryENS0_INS4_6detail12std_categoryENS_14default_deleteIS9_EEEEEEPvEENS_22__tree_node_destructorINS_9allocatorISF_EEEEE7releaseEv
FN:2648,_ZNSt3__110unique_ptrINS_11__tree_nodeINS_12__value_typeIPKN5boost6system14error_categoryENS0_INS4_6detail12std_categoryENS_14default_deleteIS9_EEEEEEPvEENS_22__tree_node_destructorINS_9allocatorISF_EEEEE5resetEPSF_
FN:2648,_ZNSt3__110unique_ptrI7__sFILEPFiPS1_EE5resetES2_
FN:2648,_ZNSt3__110unique_ptrI8EmulatorNS_14default_deleteIS1_EEE5resetEPS1_
FN:2648,_ZNSt3__110unique_ptrIN5boost6system6detail12std_categoryENS_14default_deleteIS4_EEE5resetEPS4_
FN:2648,_ZNSt3__110unique_ptrI3RAMNS_14default_deleteIS1_EEE5resetEPS1_
FN:2648,_ZNSt3__110unique_ptrI3CPUNS_14default_deleteIS1_EEE5resetEPS1_
FN:3130,_ZNSt3__1L11make_uniqueI3CPUJEEENS_11__unique_ifIT_E15__unique_singleEDpOT0_
FN:3130,_ZNSt3__1L11make_uniqueI8EmulatorJEEENS_11__unique_ifIT_E15__unique_singleEDpOT0_
FN:3130,_ZNSt3__1L11make_uniqueI3RAMJEEENS_11__unique_ifIT_E15__unique_singleEDpOT0_
FN:5627,_ZNSt3__1L16__swap_allocatorINS_9allocatorINS_12basic_stringIcNS_11char_traitsIcEENS1_IcEEEEEEEEvRT_S9_NS_17integral_constantIbLb0EEE
FN:5627,_ZNSt3__1L16__swap_allocatorINS_9allocatorImEEEEvRT_S4_NS_17integral_constantIbLb0EEE
FNDA:67584,_ZNSt3__19allocatorINS_12basic_stringIcNS_11char_traitsIcEENS0_IcEEEEEC2Ev
FNDA:0,_ZNSt3__117__compressed_pairIPNS_11__tree_nodeINS_12__value_typeIPKN5boost6system14error_categoryENS_10unique_ptrINS4_6detail12std_categoryENS_14default_deleteISA_EEEEEEPvEENS_22__tree_node_destructorINS_9allocatorISG_EEEEE6secondEv
FNDA:477,_ZNKSt3__122__compressed_pair_elemIP3RAMLi0ELb0EE5__getEv
FNDA:132,_ZNSt3__110unique_ptrI8EmulatorNS_14default_deleteIS1_EEE7releaseEv
FNDA:141,_ZNSt3__122__compressed_pair_elemINS_14default_deleteI3CPUEELi1ELb1EE5__getEv
FNDA:602,_ZNKSt3__19allocatorIhE8max_sizeEv
FNDA:0,_ZNSt3__117__compressed_pairIPN5boost2io6detail11format_itemIcNS_11char_traitsIcEENS_9allocatorIcEEEENS7_IS9_EEE6secondEv
FNDA:844800,_ZNKSt3__117__compressed_pairIPNS_12basic_stringIcNS_11char_traitsIcEENS_9allocatorIcEEEENS4_IS6_EEE5firstEv
FNDA:132,_ZNSt3__110unique_ptrI7__sFILEPFiPS1_EEC2ILb1EvEES2_NS_16__dependent_typeINS_27__unique_ptr_deleter_sfinaeIS4_EEXT_EE20__good_rval_ref_typeE
FNDA:0,_ZNSt3__122__compressed_pair_elemIPNS_11__tree_nodeINS_12__value_typeIPKN5boost6system14error_categoryENS_10unique_ptrINS4_6detail12std_categoryENS_14default_deleteISA_EEEEEEPvEELi0ELb0EE5__getEv
FNDA:0,_ZNSt3__116allocator_traitsINS_9allocatorIN5boost2io6detail11format_itemIcNS_11char_traitsIcEENS1_IcEEEEEEE9constructIS9_JRKS9_EEEvRSA_PT_DpOT0_
FNDA:0,_ZNSt3__117__compressed_pairImNS_9allocatorImEEE6secondEv
FNDA:0,_ZNSt3__19allocatorIN5boost2io6detail11format_itemIcNS_11char_traitsIcEENS0_IcEEEEE9constructIS8_JS8_EEEvPT_DpOT0_
FNDA:0,_ZNSt3__19allocatorIN5boost2io6detail11format_itemIcNS_11char_traitsIcEENS0_IcEEEEE9constructIS8_JRKS8_EEEvPT_DpOT0_
FNDA:0,_ZNSt3__116allocator_traitsINS_9allocatorINS_11__tree_nodeINS_12__value_typeIPKN5boost6system14error_categoryENS_10unique_ptrINS5_6detail12std_categoryENS_14default_deleteISB_EEEEEEPvEEEEE10deallocateERSI_PSH_m
FNDA:0,_ZNSt3__116allocator_traitsINS_9allocatorImEEE10__max_sizeENS_17integral_constantIbLb1EEERKS2_
FNDA:0,_ZNKSt3__117__compressed_pairIPN5boost2io6detail11format_itemIcNS_11char_traitsIcEENS_9allocatorIcEEEENS7_IS9_EEE5firstEv
FNDA:135,_ZNSt3__110unique_ptrI3RAMNS_14default_deleteIS1_EEED2Ev
FNDA:0,_ZNSt3__122__compressed_pair_elemINS_19__map_value_compareIPKN5boost6system14error_categoryENS_12__value_typeIS6_NS_10unique_ptrINS3_6detail12std_categoryENS_14default_deleteISA_EEEEEENS9_12cat_ptr_lessELb1EEELi1ELb1EEC2IRKSG_vEEOT_
FNDA:67452,_ZNSt3__116allocator_traitsINS_9allocatorI6OpcodeEEE7destroyIS2_EEvRS3_PT_
FNDA:0,_ZNSt3__117__compressed_pairImNS_19__map_value_compareIPKN5boost6system14error_categoryENS_12__value_typeIS6_NS_10unique_ptrINS3_6detail12std_categoryENS_14default_deleteISA_EEEEEENS9_12cat_ptr_lessELb1EEEE5firstEv
FNDA:0,_ZNSt3__122__compressed_pair_elemIPN5boost2io6detail11format_itemIcNS_11char_traitsIcEENS_9allocatorIcEEEELi0ELb0EEC2IDnvEEOT_
FNDA:1188,_ZNSt3__19allocatorI6OpcodeE10deallocateEPS1_m
FNDA:0,_ZNSt3__117__compressed_pairIPN5boost2io6detail11format_itemIcNS_11char_traitsIcEENS_9allocatorIcEEEERNS7_IS9_EEE6secondEv
FNDA:0,_ZNSt3__122__compressed_pair_elemINS_9allocatorImEELi1ELb1EEC2Ev
FNDA:0,_ZNSt3__110unique_ptrIN5boost6system6detail12std_categoryENS_14default_deleteIS4_EEEC2ILb1EvEEPS4_
FNDA:0,_ZNSt3__110unique_ptrINS_11__tree_nodeINS_12__value_typeIPKN5boost6system14error_categoryENS0_INS4_6detail12std_categoryENS_14default_deleteIS9_EEEEEEPvEENS_22__tree_node_destructorINS_9allocatorISF_EEEEED1Ev
FNDA:946176,_ZNKSt3__122__compressed_pair_elemIPNS_12basic_stringIcNS_11char_traitsIcEENS_9allocatorIcEEEELi0ELb0EE5__getEv
FNDA:264,_ZNSt3__117__compressed_pairIP6OpcodeNS_9allocatorIS1_EEEC2IDnLb1EEEOT_
FNDA:1509,_ZNKSt3__117__compressed_pairIPhNS_9allocatorIhEEE5firstEv
FNDA:1716,_ZNSt3__122__compressed_pair_elemINS_9allocatorIcEELi1ELb1EE5__getEv
FNDA:0,_ZNKSt3__114default_deleteIN5boost6system6detail12std_categoryEEclEPS4_
FNDA:0,_ZNSt3__114pointer_traitsIPNS_4pairIKPKN5boost6system14error_categoryENS_10unique_ptrINS3_6detail12std_categoryENS_14default_deleteISA_EEEEEEE10pointer_toERSE_
FNDA:0,_ZNKSt3__19allocatorINS_11__tree_nodeINS_12__value_typeIPKN5boost6system14error_categoryENS_10unique_ptrINS4_6detail12std_categoryENS_14default_deleteISA_EEEEEEPvEEE8max_sizeEv
FNDA:1594428,_ZNKSt3__117__compressed_pairINS_12basic_stringIcNS_11char_traitsIcEENS_9allocatorIcEEE5__repES5_E6secondEv
FNDA:301,_ZNSt3__116allocator_traitsINS_9allocatorIhEEE8max_sizeERKS2_
FNDA:0,_ZNSt3__122__compressed_pair_elemINS_15__tree_end_nodeIPNS_16__tree_node_baseIPvEEEELi0ELb0EEC2Ev
FNDA:132,_ZNSt3__110unique_ptrI7__sFILEPFiPS1_EE5resetES2_
FNDA:0,_ZNKSt3__117__compressed_pairIPN5boost2io6detail11format_itemIcNS_11char_traitsIcEENS_9allocatorIcEEEENS7_IS9_EEE6secondEv
FNDA:0,_ZNSt3__19allocatorINS_12basic_stringIcNS_11char_traitsIcEENS0_IcEEEEE9constructIS5_JRS5_EEEvPT_DpOT0_
FNDA:477,_ZNKSt3__110unique_ptrI3RAMNS_14default_deleteIS1_EEEptEv
FNDA:0,_ZNKSt3__122__compressed_pair_elemINS_9allocatorImEELi1ELb1EE5__getEv
FNDA:270336,_ZNSt3__117__compressed_pairIPNS_12basic_stringIcNS_11char_traitsIcEENS_9allocatorIcEEEERNS4_IS6_EEE5firstEv
FNDA:0,_ZNSt3__116allocator_traitsINS_9allocatorINS_11__tree_nodeINS_12__value_typeIPKN5boost6system14error_categoryENS_10unique_ptrINS5_6detail12std_categoryENS_14default_deleteISB_EEEEEEPvEEEEE8allocateERSI_m
FNDA:473088,_ZNSt3__117__compressed_pairIPNS_12basic_stringIcNS_11char_traitsIcEENS_9allocatorIcEEEERNS4_IS6_EEE6secondEv
FNDA:0,_ZNSt3__122__compressed_pair_elemIPN5boost6system6detail12std_categoryELi0ELb0EEC2IS5_vEEOT_
FNDA:0,_ZNKSt3__117__compressed_pairIPN5boost2io6detail11format_itemIcNS_11char_traitsIcEENS_9allocatorIcEEEERNS7_IS9_EEE5firstEv
FNDA:0,_ZNSt3__122__compressed_pair_elemIPFiP7__sFILEELi1ELb0EE5__getEv
FNDA:135,_ZNSt3__110unique_ptrI3RAMNS_14default_deleteIS1_EEED1Ev
FNDA:0,_ZNSt3__117__compressed_pairINS_15__tree_end_nodeIPNS_16__tree_node_baseIPvEEEENS_9allocatorINS_11__tree_nodeINS_12__value_typeIPKN5boost6system14error_categoryENS_10unique_ptrINSB_6detail12std_categoryENS_14default_deleteISH_EEEEEES3_EEEEE5firstEv
FNDA:0,_ZNSt3__122__compressed_pair_elemINS_9allocatorIN5boost2io6detail11format_itemIcNS_11char_traitsIcEENS1_IcEEEEEELi1ELb1EEC2Ev
FNDA:135168,_ZNSt3__116allocator_traitsINS_9allocatorINS_12basic_stringIcNS_11char_traitsIcEENS1_IcEEEEEEE20__construct_backwardIPS6_EEvRS7_T_SC_RSC_
FNDA:0,_ZNSt3__116allocator_traitsINS_9allocatorIN5boost2io6detail11format_itemIcNS_11char_traitsIcEENS1_IcEEEEEEE11__constructIS9_JRKS9_EEEvNS_17integral_constantIbLb1EEERSA_PT_DpOT0_
FNDA:33792,_ZNSt3__116allocator_traitsINS_9allocatorI6OpcodeEEE11__constructIS2_JRKS2_EEEvNS_17integral_constantIbLb1EEERS3_PT_DpOT0_
FNDA:0,_ZNSt3__116allocator_traitsINS_9allocatorIN5boost2io6detail11format_itemIcNS_11char_traitsIcEENS1_IcEEEEEEE9constructIS9_JS9_EEEvRSA_PT_DpOT0_
FNDA:1572,_ZNKSt3__122__compressed_pair_elemIP8EmulatorLi0ELb0EE5__getEv
FNDA:0,_ZNSt3__117__compressed_pairIPN5boost6system6detail12std_categoryENS_14default_deleteIS4_EEEC1IRS5_Lb1EEEOT_
FNDA:0,_ZNSt3__122__compressed_pair_elemIPNS_11__tree_nodeINS_12__value_typeIPKN5boost6system14error_categoryENS_10unique_ptrINS4_6detail12std_categoryENS_14default_deleteISA_EEEEEEPvEELi0ELb0EEC2IRSH_vEEOT_
FNDA:0,_ZNSt3__117__compressed_pairImNS_9allocatorImEEE5firstEv
FNDA:301,_ZNSt3__117__compressed_pairIPhNS_9allocatorIhEEE5firstEv
FNDA:0,_ZNSt3__116allocator_traitsINS_9allocatorIN5boost2io6detail11format_itemIcNS_11char_traitsIcEENS1_IcEEEEEEE8allocateERSA_m
FNDA:0,_ZNSt3__19allocatorINS_11__tree_nodeINS_12__value_typeIPKN5boost6system14error_categoryENS_10unique_ptrINS4_6detail12std_categoryENS_14default_deleteISA_EEEEEEPvEEE9constructINS_4pairIKS7_SD_EEJSL_EEEvPT_DpOT0_
FNDA:0,_ZNSt3__116allocator_traitsINS_9allocatorImEEE8allocateERS2_m
FNDA:132,_ZNSt3__117__compressed_pairIP7__sFILEPFiS2_EEC2IRS2_S4_EEOT_OT0_
FNDA:202752,_ZNSt3__122__compressed_pair_elemIPNS_12basic_stringIcNS_11char_traitsIcEENS_9allocatorIcEEEELi0ELb0EEC2IDnvEEOT_
FNDA:67584,_ZNSt3__117__compressed_pairIPNS_12basic_stringIcNS_11char_traitsIcEENS_9allocatorIcEEEENS4_IS6_EEEC1IDnLb1EEEOT_
FNDA:1572,_ZNKSt3__117__compressed_pairIP8EmulatorNS_14default_deleteIS1_EEE5firstEv
FNDA:0,_ZNKSt3__110unique_ptrINS_11__tree_nodeINS_12__value_typeIPKN5boost6system14error_categoryENS0_INS4_6detail12std_categoryENS_14default_deleteIS9_EEEEEEPvEENS_22__tree_node_destructorINS_9allocatorISF_EEEEE3getEv
FNDA:0,_ZNSt3__122__compressed_pair_elemINS_9allocatorIcEELi1ELb1EEC2IRKS2_vEEOT_
FNDA:0,_ZNSt3__116allocator_traitsINS_9allocatorINS_11__tree_nodeINS_12__value_typeIPKN5boost6system14error_categoryENS_10unique_ptrINS5_6detail12std_categoryENS_14default_deleteISB_EEEEEEPvEEEEE9__destroyINS_4pairIKS8_SE_EEEEvNS_17integral_constantIbLb0EEERSI_PT_
FNDA:0,_ZNSt3__1L16__to_raw_pointerIcEEPT_S2_
FNDA:33660,_ZNSt3__116allocator_traitsINS_9allocatorI6OpcodeEEE9constructIS2_JS2_EEEvRS3_PT_DpOT0_
FNDA:8847360,_ZNSt3__116allocator_traitsINS_9allocatorIhEEE9constructIhJRKhEEEvRS2_PT_DpOT0_
FNDA:6600,_ZNKSt3__117__compressed_pairIP6OpcodeNS_9allocatorIS1_EEE5firstEv
FNDA:2615,_ZNKSt3__110unique_ptrI3CPUNS_14default_deleteIS1_EEEptEv
FNDA:135168,_ZNKSt3__117__compressed_pairIPNS_12basic_stringIcNS_11char_traitsIcEENS_9allocatorIcEEEENS4_IS6_EEE6secondEv
FNDA:135,_ZNSt3__122__compressed_pair_elemINS_14default_deleteI3RAMEELi1ELb1EE5__getEv
FNDA:0,_ZNSt3__117__compressed_pairINS_12basic_stringIcNS_11char_traitsIcEENS_9allocatorIcEEE5__repES5_EC1IRKS5_EENS_12__second_tagEOT_
FNDA:0,_ZNSt3__110unique_ptrINS_11__tree_nodeINS_12__value_typeIPKN5boost6system14error_categoryENS0_INS4_6detail12std_categoryENS_14default_deleteIS9_EEEEEEPvEENS_22__tree_node_destructorINS_9allocatorISF_EEEEEC2ILb1EvEEPSF_NS_16__dependent_typeINS_27__unique_ptr_deleter_sfinaeISJ_EEXT_EE20__good_rval_ref_typeE
FNDA:405504,_ZNSt3__19allocatorINS_12basic_stringIcNS_11char_traitsIcEENS0_IcEEEEE9constructIS5_JS5_EEEvPT_DpOT0_
FNDA:3,_ZNSt3__110unique_ptrI3CPUNS_14default_deleteIS1_EEE7releaseEv
FNDA:0,_ZNSt3__122__compressed_pair_elemImLi0ELb0EE5__getEv
FNDA:133,_ZNSt3__122__compressed_pair_elemIP3RAMLi0ELb0EEC2IRS2_vEEOT_
FNDA:574464,_ZNSt3__122__compressed_pair_elemINS_9allocatorINS_12basic_stringIcNS_11char_traitsIcEENS1_IcEEEEEELi1ELb1EE5__getEv
FNDA:694320,_ZNSt3__114pointer_traitsIPcE10pointer_toERc
FNDA:132,_ZNSt3__110unique_ptrI8EmulatorNS_14default_deleteIS1_EEEC2ILb1EvEEPS1_
FNDA:2615,_ZNKSt3__122__compressed_pair_elemIP3CPULi0ELb0EE5__getEv
FNDA:8717014,_ZNSt3__116allocator_traitsINS_9allocatorIhEEE9__destroyIhEEvNS_17integral_constantIbLb1EEERS2_PT_
FNDA:301,_ZNSt3__19allocatorIhE10deallocateEPhm
FNDA:528,_ZNSt3__122__compressed_pair_elemIP7__sFILELi0ELb0EE5__getEv
FNDA:112,_ZNSt3__122__compressed_pair_elemINS_9allocatorIhEELi1ELb1EEC2IS2_vEEOT_
FNDA:0,_ZNSt3__19allocatorIbEC1ImEERKNS0_IT_EE
FNDA:135,_ZNSt3__122__compressed_pair_elemIP3CPULi0ELb0EEC2IRS2_vEEOT_
FNDA:396,_ZNSt3__122__compressed_pair_elemINS_14default_deleteI8EmulatorEELi1ELb1EE5__getEv
FNDA:141,_ZNSt3__117__compressed_pairIP3CPUNS_14default_deleteIS1_EEE6secondEv
FNDA:132,_ZNSt3__110unique_ptrI8EmulatorNS_14default_deleteIS1_EEE11get_deleterEv
FNDA:1594428,_ZNSt3__116allocator_traitsINS_9allocatorIcEEE10__max_sizeENS_17integral_constantIbLb1EEERKS2_
FNDA:0,_ZNSt3__122__compressed_pair_elemINS_9allocatorINS_12basic_stringIcNS_11char_traitsIcEENS1_IcEEEEEELi1ELb1EEC2IS7_vEEOT_
FNDA:0,_ZNSt3__110unique_ptrINS_11__tree_nodeINS_12__value_typeIPKN5boost6system14error_categoryENS0_INS4_6detail12std_categoryENS_14default_deleteIS9_EEEEEEPvEENS_22__tree_node_destructorINS_9allocatorISF_EEEEE5resetEPSF_
FNDA:8717919,_ZNSt3__117__compressed_pairIPhNS_9allocatorIhEEE6secondEv
FNDA:0,_ZNSt3__122__compressed_pair_elemIRNS_9allocatorIN5boost2io6detail11format_itemIcNS_11char_traitsIcEENS1_IcEEEEEELi1ELb0EEC2ISB_vEEOT_
FNDA:135,_ZNSt3__117__compressed_pairIP3CPUNS_14default_deleteIS1_EEEC2IRS2_Lb1EEEOT_
FNDA:0,_ZNSt3__116allocator_traitsINS_9allocatorINS_12basic_stringIcNS_11char_traitsIcEENS1_IcEEEEEEE39__select_on_container_copy_constructionENS_17integral_constantIbLb0EEERKS7_
FNDA:191,_ZNSt3__122__compressed_pair_elemINS_9allocatorIhEELi1ELb1EEC2Ev
FNDA:0,_ZNSt3__110unique_ptrIN5boost6system6detail12std_categoryENS_14default_deleteIS4_EEEC1EOS7_
FNDA:0,_ZNSt3__117__compressed_pairINS_15__tree_end_nodeIPNS_16__tree_node_baseIPvEEEENS_9allocatorINS_11__tree_nodeINS_12__value_typeIPKN5boost6system14error_categoryENS_10unique_ptrINSB_6detail12std_categoryENS_14default_deleteISH_EEEEEES3_EEEEEC2ILb1EvEEv
FNDA:3,_ZNSt3__110unique_ptrI3CPUNS_14default_deleteIS1_EEE11get_deleterEv
FNDA:0,_ZNSt3__117__compressed_pairImNS_9allocatorImEEEC2IiLb1EEEOT_
FNDA:0,_ZNSt3__116allocator_traitsINS_9allocatorINS_11__tree_nodeINS_12__value_typeIPKN5boost6system14error_categoryENS_10unique_ptrINS5_6detail12std_categoryENS_14default_deleteISB_EEEEEEPvEEEEE7destroyINS_4pairIKS8_SE_EEEEvRSI_PT_
FNDA:135168,_ZNSt3__116allocator_traitsINS_9allocatorINS_12basic_stringIcNS_11char_traitsIcEENS1_IcEEEEEEE8allocateERS7_m
FNDA:135168,_ZNSt3__116allocator_traitsINS_9allocatorINS_12basic_stringIcNS_11char_traitsIcEENS1_IcEEEEEEE10deallocateERS7_PS6_m
FNDA:0,_ZNSt3__110unique_ptrIN5boost6system6detail12std_categoryENS_14default_deleteIS4_EEE7releaseEv
FNDA:1594428,_ZNKSt3__122__compressed_pair_elemINS_9allocatorIcEELi1ELb1EE5__getEv
FNDA:0,_ZNSt3__122__compressed_pair_elemINS_9allocatorINS_11__tree_nodeINS_12__value_typeIPKN5boost6system14error_categoryENS_10unique_ptrINS5_6detail12std_categoryENS_14default_deleteISB_EEEEEEPvEEEELi1ELb1EE5__getEv
FNDA:0,_ZNSt3__19allocatorIN5boost2io6detail11format_itemIcNS_11char_traitsIcEENS0_IcEEEEE10deallocateEPS8_m
FNDA:0,_ZNSt3__122__compressed_pair_elemINS_9allocatorImEELi1ELb1EEC2IS2_vEEOT_
FNDA:0,_ZNKSt3__122__compressed_pair_elemIPN5boost6system6detail12std_categoryELi0ELb0EE5__getEv
FNDA:132,_ZNSt3__110unique_ptrI7__sFILEPFiPS1_EED2Ev
FNDA:8717014,_ZNSt3__19allocatorIhE7destroyEPh
FNDA:264,_ZNSt3__122__compressed_pair_elemINS_9allocatorI6OpcodeEELi1ELb1EEC2Ev
FNDA:133,_ZNSt3__110unique_ptrI3RAMNS_14default_deleteIS1_EEEC1ILb1EvEEPS1_
FNDA:67452,_ZNSt3__116allocator_traitsINS_9allocatorI6OpcodeEEE9__destroyIS2_EEvNS_17integral_constantIbLb1EEERS3_PT_
FNDA:33792,_ZNSt3__1L16__swap_allocatorINS_9allocatorINS_12basic_stringIcNS_11char_traitsIcEENS1_IcEEEEEEEEvRT_S9_NS_17integral_constantIbLb0EEE
FNDA:371712,_ZNSt3__117__compressed_pairIPNS_12basic_stringIcNS_11char_traitsIcEENS_9allocatorIcEEEENS4_IS6_EEE5firstEv
FNDA:135,_ZNSt3__1L11make_uniqueI3CPUJEEENS_11__unique_ifIT_E15__unique_singleEDpOT0_
FNDA:132,_ZNSt3__110unique_ptrI8EmulatorNS_14default_deleteIS1_EEEC1ILb1EvEEPS1_
FNDA:0,_ZNSt3__19allocatorIhE9constructIhJhEEEvPT_DpOT0_
FNDA:132,_ZNSt3__117__compressed_pairIP7__sFILEPFiS2_EEC1IRS2_S4_EEOT_OT0_
FNDA:135,_ZNSt3__117__compressed_pairIP3RAMNS_14default_deleteIS1_EEE6secondEv
FNDA:271,_ZNSt3__110unique_ptrI3CPUNS_14default_deleteIS1_EEED2Ev
FNDA:3,_ZNSt3__110unique_ptrI3CPUNS_14default_deleteIS1_EEEaSEOS4_
FNDA:133,_ZNSt3__117__compressed_pairIP3RAMNS_14default_deleteIS1_EEEC2IRS2_Lb1EEEOT_
FNDA:2615,_ZNKSt3__117__compressed_pairIP3CPUNS_14default_deleteIS1_EEE5firstEv
FNDA:191,_ZNSt3__19allocatorIhEC2Ev
FNDA:1716,_ZNSt3__117__compressed_pairINS_12basic_stringIcNS_11char_traitsIcEENS_9allocatorIcEEE5__repES5_E6secondEv
FNDA:473088,_ZNSt3__122__compressed_pair_elemIRNS_9allocatorINS_12basic_stringIcNS_11char_traitsIcEENS1_IcEEEEEELi1ELb0EE5__getEv
FNDA:0,_ZNSt3__116allocator_traitsINS_9allocatorIN5boost2io6detail11format_itemIcNS_11char_traitsIcEENS1_IcEEEEEEE7destroyIS9_EEvRSA_PT_
FNDA:0,_ZNSt3__116allocator_traitsINS_9allocatorIcEEE10deallocateERS2_Pcm
FNDA:8847360,_ZNSt3__19allocatorIhE9constructIhJRKhEEEvPT_DpOT0_
FNDA:0,_ZNSt3__116allocator_traitsINS_9allocatorImEEE10deallocateERS2_Pmm
FNDA:0,_ZNSt3__122__compressed_pair_elemINS_9allocatorImEELi1ELb1EE5__getEv
FNDA:135168,_ZNSt3__117__compressed_pairIPNS_12basic_stringIcNS_11char_traitsIcEENS_9allocatorIcEEEERNS4_IS6_EEEC2IDnS9_EEOT_OT0_
FNDA:132,_ZNSt3__114pointer_traitsIPKcE10pointer_toERS1_
FNDA:132,_ZNKSt3__114default_deleteI8EmulatorEclEPS1_
FNDA:528,_ZNSt3__117__compressed_pairIP7__sFILEPFiS2_EE5firstEv
FNDA:0,_ZNSt3__116allocator_traitsINS_9allocatorImEEE8max_sizeERKS2_
FNDA:0,_ZNSt3__114pointer_traitsIPNS_15__tree_end_nodeIPNS_16__tree_node_baseIPvEEEEE10pointer_toERS6_
FNDA:2162688,_ZNSt3__1L16__to_raw_pointerINS_12basic_stringIcNS_11char_traitsIcEENS_9allocatorIcEEEEEEPT_S8_
FNDA:0,_ZNKSt3__19allocatorImE8max_sizeEv
FNDA:135168,_ZNSt3__116allocator_traitsINS_9allocatorINS_12basic_stringIcNS_11char_traitsIcEENS1_IcEEEEEEE8max_sizeERKS7_
FNDA:0,_ZNSt3__19allocatorImEC1IbEERKNS0_IT_EE
FNDA:0,_ZNSt3__117__compressed_pairIPNS_12basic_stringIcNS_11char_traitsIcEENS_9allocatorIcEEEENS4_IS6_EEEC2IDnS8_EEOT_OT0_
FNDA:69168,_ZNSt3__122__compressed_pair_elemINS_9allocatorI6OpcodeEELi1ELb1EE5__getEv
FNDA:0,_ZNSt3__116allocator_traitsINS_9allocatorIN5boost2io6detail11format_itemIcNS_11char_traitsIcEENS1_IcEEEEEEE10__max_sizeENS_17integral_constantIbLb1EEERKSA_
FNDA:8847360,_ZNSt3__116allocator_traitsINS_9allocatorIhEEE11__constructIhJRKhEEEvNS_17integral_constantIbLb1EEERS2_PT_DpOT0_
FNDA:135168,_ZNSt3__116allocator_traitsINS_9allocatorINS_12basic_stringIcNS_11char_traitsIcEENS1_IcEEEEEEE10__max_sizeENS_17integral_constantIbLb1EEERKS7_
FNDA:101376,_ZNKSt3__117__compressed_pairIPNS_12basic_stringIcNS_11char_traitsIcEENS_9allocatorIcEEEERNS4_IS6_EEE5firstEv
FNDA:0,_ZNSt3__110unique_ptrINS_11__tree_nodeINS_12__value_typeIPKN5boost6system14error_categoryENS0_INS4_6detail12std_categoryENS_14default_deleteIS9_EEEEEEPvEENS_22__tree_node_destructorINS_9allocatorISF_EEEEEC1ILb1EvEEPSF_NS_16__dependent_typeINS_27__unique_ptr_deleter_sfinaeISJ_EEXT_EE20__good_rval_ref_typeE
FNDA:0,_ZNSt3__1L16__to_raw_pointerIKmEEPT_S3_
FNDA:0,_ZNSt3__117__compressed_pairIPNS_11__tree_nodeINS_12__value_typeIPKN5boost6system14error_categoryENS_10unique_ptrINS4_6detail12std_categoryENS_14default_deleteISA_EEEEEEPvEENS_22__tree_node_destructorINS_9allocatorISG_EEEEEC2IRSH_SL_EEOT_OT0_
FNDA:135,_ZNKSt3__114default_deleteI3RAMEclEPS1_
FNDA:2376,_ZNSt3__117__compressed_pairIP6OpcodeRNS_9allocatorIS1_EEE5firstEv
FNDA:271,_ZNSt3__110unique_ptrI3CPUNS_14default_deleteIS1_EEED1Ev
FNDA:1572,_ZNKSt3__110unique_ptrI8EmulatorNS_14default_deleteIS1_EEEptEv
FNDA:4040520,_ZNKSt3__122__compressed_pair_elemINS_12basic_stringIcNS_11char_traitsIcEENS_9allocatorIcEEE5__repELi0ELb0EE5__getEv
FNDA:270,_ZNSt3__117__compressed_pairIP3RAMNS_14default_deleteIS1_EEE5firstEv
FNDA:175611,_ZNSt3__19allocatorIcEC2Ev
FNDA:0,_ZNSt3__117__compressed_pairIPN5boost6system6detail12std_categoryENS_14default_deleteIS4_EEEC2IRS5_Lb1EEEOT_
FNDA:132,_ZNSt3__110unique_ptrI7__sFILEPFiPS1_EEC1ILb1EvEES2_NS_16__dependent_typeINS_27__unique_ptr_deleter_sfinaeIS4_EEXT_EE20__good_rval_ref_typeE
FNDA:132,_ZNSt3__1L11make_uniqueI8EmulatorJEEENS_11__unique_ifIT_E15__unique_singleEDpOT0_
FNDA:0,_ZNSt3__19allocatorINS_11__tree_nodeINS_12__value_typeIPKN5boost6system14error_categoryENS_10unique_ptrINS4_6detail12std_categoryENS_14default_deleteISA_EEEEEEPvEEE8allocateEmPKv
FNDA:0,_ZNSt3__19allocatorIN5boost2io6detail11format_itemIcNS_11char_traitsIcEENS0_IcEEEEEC2Ev
FNDA:0,_ZNSt3__116allocator_traitsINS_9allocatorIN5boost2io6detail11format_itemIcNS_11char_traitsIcEENS1_IcEEEEEEE9__destroyIS9_EEvNS_17integral_constantIbLb1EEERSA_PT_
FNDA:132,_ZNSt3__117__compressed_pairIP8EmulatorNS_14default_deleteIS1_EEEC1IRS2_Lb1EEEOT_
FNDA:0,_ZNSt3__117__compressed_pairIPN5boost6system6detail12std_categoryENS_14default_deleteIS4_EEEC1IS5_S7_EEOT_OT0_
FNDA:1716,_ZNSt3__19allocatorIcE8allocateEmPKv
FNDA:301,_ZNSt3__122__compressed_pair_elemIPhLi0ELb0EE5__getEv
FNDA:135168,_ZNSt3__19allocatorINS_12basic_stringIcNS_11char_traitsIcEENS0_IcEEEEE10deallocateEPS5_m
FNDA:405504,_ZNSt3__116allocator_traitsINS_9allocatorINS_12basic_stringIcNS_11char_traitsIcEENS1_IcEEEEEEE7destroyIS6_EEvRS7_PT_
FNDA:132,_ZNSt3__110unique_ptrI8EmulatorNS_14default_deleteIS1_EEEaSEOS4_
FNDA:1498896,_ZNSt3__122__compressed_pair_elemINS_12basic_stringIcNS_11char_traitsIcEENS_9allocatorIcEEE5__repELi0ELb0EE5__getEv
FNDA:0,_ZNKSt3__122__compressed_pair_elemImLi0ELb0EE5__getEv
FNDA:0,_ZNSt3__110unique_ptrIN5boost6system6detail12std_categoryENS_14default_deleteIS4_EEE11get_deleterEv
FNDA:0,_ZNSt3__117__compressed_pairINS_12basic_stringIcNS_11char_traitsIcEENS_9allocatorIcEEE5__repES5_EC2IRKS5_EENS_12__second_tagEOT_
FNDA:0,_ZNSt3__116allocator_traitsINS_9allocatorIhEEE20__construct_backwardIhEENS_9enable_ifIXaaooL_ZNS_17integral_constantIbLb1EE5valueEEntsr15__has_constructIS2_PT_S8_EE5valuesr31is_trivially_move_constructibleIS8_EE5valueEvE4typeERS2_S9_S9_RS9_
FNDA:4040520,_ZNKSt3__117__compressed_pairINS_12basic_stringIcNS_11char_traitsIcEENS_9allocatorIcEEE5__repES5_E5firstEv
FNDA:0,_ZNSt3__117__compressed_pairImNS_9allocatorImEEEC1IiS2_EEOT_OT0_
FNDA:0,_ZNSt3__1L16__to_raw_pointerIN5boost2io6detail11format_itemIcNS_11char_traitsIcEENS_9allocatorIcEEEEEEPT_SB_
FNDA:0,_ZNKSt3__117__compressed_pairImNS_9allocatorImEEE6secondEv
FNDA:303,_ZNSt3__122__compressed_pair_elemIPhLi0ELb0EEC2IDnvEEOT_
FNDA:0,_ZNSt3__117__compressed_pairIPN5boost6system6detail12std_categoryENS_14default_deleteIS4_EEEC2IS5_S7_EEOT_OT0_
FNDA:0,_ZNSt3__116allocator_traitsINS_9allocatorINS_11__tree_nodeINS_12__value_typeIPKN5boost6system14error_categoryENS_10unique_ptrINS5_6detail12std_categoryENS_14default_deleteISB_EEEEEEPvEEEEE9constructINS_4pairIKS8_SE_EEJSN_EEEvRSI_PT_DpOT0_
FNDA:0,_ZNSt3__110unique_ptrIN5boost6system6detail12std_categoryENS_14default_deleteIS4_EEEC1ILb1EvEEPS4_
FNDA:56,_ZNSt3__116allocator_traitsINS_9allocatorIhEEE25__construct_range_forwardIKhhhhEENS_9enable_ifIXaaaasr31is_trivially_move_constructibleIT0_EE5valuesr7is_sameIT1_T2_EE5valueooL_ZNS_17integral_constantIbLb1EE5valueEEntsr15__has_constructIS2_PS7_RT_EE5valueEvE4typeERS2_PSD_SI_RSC_
FNDA:0,_ZNSt3__117__compressed_pairIPN5boost2io6detail11format_itemIcNS_11char_traitsIcEENS_9allocatorIcEEEERNS7_IS9_EEEC1IDnSC_EEOT_OT0_
FNDA:0,_ZNSt3__19allocatorImE8allocateEmPKv
FNDA:0,_ZNSt3__122__compressed_pair_elemIPN5boost6system6detail12std_categoryELi0ELb0EE5__getEv
FNDA:0,_ZNSt3__117__compressed_pairImNS_9allocatorImEEEC2IiS2_EEOT_OT0_
FNDA:1452,_ZNSt3__122__compressed_pair_elemIP6OpcodeLi0ELb0EEC2IDnvEEOT_
FNDA:0,_ZNSt3__117__compressed_pairIPhRNS_9allocatorIhEEEC2IDnS4_EEOT_OT0_
FNDA:0,_ZNKSt3__122__compressed_pair_elemIPN5boost2io6detail11format_itemIcNS_11char_traitsIcEENS_9allocatorIcEEEELi0ELb0EE5__getEv
FNDA:0,_ZNKSt3__117__compressed_pairINS_15__tree_end_nodeIPNS_16__tree_node_baseIPvEEEENS_9allocatorINS_11__tree_nodeINS_12__value_typeIPKN5boost6system14error_categoryENS_10unique_ptrINSB_6detail12std_categoryENS_14default_deleteISH_EEEEEES3_EEEEE5firstEv
FNDA:0,_ZNSt3__116allocator_traitsINS_9allocatorINS_12basic_stringIcNS_11char_traitsIcEENS1_IcEEEEEEE37select_on_container_copy_constructionERKS7_
FNDA:0,_ZNSt3__19allocatorImEC2Ev
FNDA:0,_ZNSt3__117__compressed_pairIP7__sFILEPFiS2_EE6secondEv
FNDA:0,_ZNSt3__19allocatorIbEC2ImEERKNS0_IT_EE
FNDA:0,_ZNSt3__122__compressed_pair_elemIPN5boost2io6detail11format_itemIcNS_11char_traitsIcEENS_9allocatorIcEEEELi0ELb0EE5__getEv
FNDA:1188,_ZNKSt3__117__compressed_pairIP6OpcodeNS_9allocatorIS1_EEE6secondEv
FNDA:0,_ZNSt3__117__compressed_pairIPhRNS_9allocatorIhEEE6secondEv
FNDA:405504,_ZNSt3__116allocator_traitsINS_9allocatorINS_12basic_stringIcNS_11char_traitsIcEENS1_IcEEEEEEE11__constructIS6_JS6_EEEvNS_17integral_constantIbLb1EEERS7_PT_DpOT0_
FNDA:405504,_ZNSt3__116allocator_traitsINS_9allocatorINS_12basic_stringIcNS_11char_traitsIcEENS1_IcEEEEEEE9constructIS6_JS6_EEEvRS7_PT_DpOT0_
FNDA:132,_ZNSt3__110unique_ptrI7__sFILEPFiPS1_EED1Ev
FNDA:17566790,_ZNSt3__1L16__to_raw_pointerIhEEPT_S2_
FNDA:0,_ZNSt3__122__compressed_pair_elemIRNS_9allocatorIhEELi1ELb0EE5__getEv
FNDA:477,_ZNKSt3__117__compressed_pairIP3RAMNS_14default_deleteIS1_EEE5firstEv
FNDA:0,_ZNKSt3__110unique_ptrINS_11__tree_nodeINS_12__value_typeIPKN5boost6system14error_categoryENS0_INS4_6detail12std_categoryENS_14default_deleteIS9_EEEEEEPvEENS_22__tree_node_destructorINS_9allocatorISF_EEEEEptEv
FNDA:0,_ZNSt3__117__compressed_pairIPN5boost2io6detail11format_itemIcNS_11char_traitsIcEENS_9allocatorIcEEEERNS7_IS9_EEE5firstEv
FNDA:0,_ZNSt3__117__compressed_pairINS_15__tree_end_nodeIPNS_16__tree_node_baseIPvEEEENS_9allocatorINS_11__tree_nodeINS_12__value_typeIPKN5boost6system14error_categoryENS_10unique_ptrINSB_6detail12std_categoryENS_14default_deleteISH_EEEEEES3_EEEEE6secondEv
FNDA:133,_ZNSt3__110unique_ptrI3RAMNS_14default_deleteIS1_EEEC2ILb1EvEEPS1_
FNDA:0,_ZNSt3__117__compressed_pairIPN5boost6system6detail12std_categoryENS_14default_deleteIS4_EEE5firstEv
FNDA:0,_ZNSt3__110unique_ptrIN5boost6system6detail12std_categoryENS_14default_deleteIS4_EEEC2EOS7_
FNDA:0,_ZNSt3__122__compressed_pair_elemINS_14default_deleteIN5boost6system6detail12std_categoryEEELi1ELb1EE5__getEv
FNDA:0,_ZNSt3__122__compressed_pair_elemINS_15__tree_end_nodeIPNS_16__tree_node_baseIPvEEEELi0ELb0EE5__getEv
FNDA:1328,_ZNSt3__122__compressed_pair_elemIP8EmulatorLi0ELb0EE5__getEv
FNDA:0,_ZNSt3__122__compressed_pair_elemINS_19__map_value_compareIPKN5boost6system14error_categoryENS_12__value_typeIS6_NS_10unique_ptrINS3_6detail12std_categoryENS_14default_deleteISA_EEEEEENS9_12cat_ptr_lessELb1EEELi1ELb1EE5__getEv
FNDA:0,_ZNSt3__116allocator_traitsINS_9allocatorINS_12basic_stringIcNS_11char_traitsIcEENS1_IcEEEEEEE11__constructIS6_JRS6_EEEvNS_17integral_constantIbLb1EEERS7_PT_DpOT0_
FNDA:175611,_ZNSt3__117__compressed_pairINS_12basic_stringIcNS_11char_traitsIcEENS_9allocatorIcEEE5__repES5_EC1ILb1EvEEv
FNDA:0,_ZNSt3__116allocator_traitsINS_9allocatorIN5boost2io6detail11format_itemIcNS_11char_traitsIcEENS1_IcEEEEEEE8max_sizeERKSA_
FNDA:0,_ZNSt3__19allocatorIcEC1Ev
FNDA:0,_ZNSt3__117__compressed_pairIPN5boost2io6detail11format_itemIcNS_11char_traitsIcEENS_9allocatorIcEEEENS7_IS9_EEEC1IDnLb1EEEOT_
FNDA:1498896,_ZNSt3__117__compressed_pairINS_12basic_stringIcNS_11char_traitsIcEENS_9allocatorIcEEE5__repES5_E5firstEv
FNDA:191,_ZNSt3__117__compressed_pairIPhNS_9allocatorIhEEEC1IDnLb1EEEOT_
FNDA:301,_ZNSt3__19allocatorIhE8allocateEmPKv
FNDA:191,_ZNSt3__117__compressed_pairIPhNS_9allocatorIhEEEC2IDnLb1EEEOT_
FNDA:1056,_ZNKSt3__117__compressed_pairIP6OpcodeRNS_9allocatorIS1_EEE5firstEv
FNDA:135168,_ZNKSt3__122__compressed_pair_elemINS_9allocatorINS_12basic_stringIcNS_11char_traitsIcEENS1_IcEEEEEELi1ELb1EE5__getEv
FNDA:0,_ZNSt3__116allocator_traitsINS_9allocatorIhEEE11__constructIhJhEEEvNS_17integral_constantIbLb1EEERS2_PT_DpOT0_
FNDA:642048,_ZNSt3__122__compressed_pair_elemIPNS_12basic_stringIcNS_11char_traitsIcEENS_9allocatorIcEEEELi0ELb0EE5__getEv
FNDA:0,_ZNSt3__122__compressed_pair_elemImLi0ELb0EEC2IivEEOT_
FNDA:0,_ZNKSt3__122__compressed_pair_elemIPNS_11__tree_nodeINS_12__value_typeIPKN5boost6system14error_categoryENS_10unique_ptrINS4_6detail12std_categoryENS_14default_deleteISA_EEEEEEPvEELi0ELb0EE5__getEv
FNDA:277,_ZNSt3__110unique_ptrI3CPUNS_14default_deleteIS1_EEE5resetEPS1_
FNDA:0,_ZNKSt3__122__compressed_pair_elemINS_15__tree_end_nodeIPNS_16__tree_node_baseIPvEEEELi0ELb0EE5__getEv
FNDA:0,_ZNKSt3__19allocatorIN5boost2io6detail11format_itemIcNS_11char_traitsIcEENS0_IcEEEEE8max_sizeEv
FNDA:133,_ZNSt3__1L11make_uniqueI3RAMJEEENS_11__unique_ifIT_E15__unique_singleEDpOT0_
FNDA:7656,_ZNKSt3__122__compressed_pair_elemIP6OpcodeLi0ELb0EE5__getEv
FNDA:0,_ZNSt3__19allocatorINS_12basic_stringIcNS_11char_traitsIcEENS0_IcEEEEE9constructIS5_JRKS5_EEEvPT_DpOT0_
FNDA:0,_ZNSt3__117__compressed_pairIPhRNS_9allocatorIhEEE5firstEv
FNDA:0,_ZNSt3__110unique_ptrIN5boost6system6detail12std_categoryENS_14default_deleteIS4_EEED1Ev
FNDA:270336,_ZNKSt3__19allocatorINS_12basic_stringIcNS_11char_traitsIcEENS0_IcEEEEE8max_sizeEv
FNDA:0,_ZNSt3__19allocatorINS_11__tree_nodeINS_12__value_typeIPKN5boost6system14error_categoryENS_10unique_ptrINS4_6detail12std_categoryENS_14default_deleteISA_EEEEEEPvEEE10deallocateEPSG_m
FNDA:0,_ZNSt3__116allocator_traitsINS_9allocatorIN5boost2io6detail11format_itemIcNS_11char_traitsIcEENS1_IcEEEEEEE11__constructIS9_JS9_EEEvNS_17integral_constantIbLb1EEERSA_PT_DpOT0_
FNDA:0,_ZNSt3__117__compressed_pairImNS_9allocatorImEEEC1IiLb1EEEOT_
FNDA:112,_ZNSt3__116allocator_traitsINS_9allocatorIhEEE37select_on_container_copy_constructionERKS2_
FNDA:0,_ZNSt3__116allocator_traitsINS_9allocatorINS_12basic_stringIcNS_11char_traitsIcEENS1_IcEEEEEEE25__construct_range_forwardIPS6_SA_EEvRS7_T_SC_RT0_
FNDA:560,_ZNSt3__122__compressed_pair_elemIP3CPULi0ELb0EE5__getEv
FNDA:1596144,_ZNKSt3__19allocatorIcE8max_sizeEv
FNDA:0,_ZNSt3__110unique_ptrINS_11__tree_nodeINS_12__value_typeIPKN5boost6system14error_categoryENS0_INS4_6detail12std_categoryENS_14default_deleteIS9_EEEEEEPvEENS_22__tree_node_destructorINS_9allocatorISF_EEEEE7releaseEv
FNDA:69168,_ZNSt3__117__compressed_pairIP6OpcodeNS_9allocatorIS1_EEE6secondEv
FNDA:8717014,_ZNSt3__116allocator_traitsINS_9allocatorIhEEE7destroyIhEEvRS2_PT_
FNDA:0,_ZNKSt3__117__compressed_pairIPhRNS_9allocatorIhEEE5firstEv
FNDA:301,_ZNSt3__116allocator_traitsINS_9allocatorIhEEE10__max_sizeENS_17integral_constantIbLb1EEERKS2_
FNDA:0,_ZNSt3__1L16__to_raw_pointerImEEPT_S2_
FNDA:0,_ZNSt3__116allocator_traitsINS_9allocatorIhEEE9constructIhJhEEEvRS2_PT_DpOT0_
FNDA:132,_ZNSt3__1L16__to_raw_pointerIKcEEPT_S3_
FNDA:67584,_ZNSt3__122__compressed_pair_elemINS_9allocatorINS_12basic_stringIcNS_11char_traitsIcEENS1_IcEEEEEELi1ELb1EEC2Ev
FNDA:1188,_ZNSt3__116allocator_traitsINS_9allocatorI6OpcodeEEE20__construct_backwardIPS2_EEvRS3_T_S8_RS8_
FNDA:1188,_ZNSt3__116allocator_traitsINS_9allocatorI6OpcodeEEE8max_sizeERKS3_
FNDA:1328,_ZNSt3__117__compressed_pairIP8EmulatorNS_14default_deleteIS1_EEE5firstEv
FNDA:0,_ZNSt3__110unique_ptrINS_11__tree_nodeINS_12__value_typeIPKN5boost6system14error_categoryENS0_INS4_6detail12std_categoryENS_14default_deleteIS9_EEEEEEPvEENS_22__tree_node_destructorINS_9allocatorISF_EEEEED2Ev
FNDA:0,_ZNKSt3__110unique_ptrIN5boost6system6detail12std_categoryENS_14default_deleteIS4_EEEdeEv
FNDA:135,_ZNSt3__110unique_ptrI3CPUNS_14default_deleteIS1_EEEC2ILb1EvEEPS1_
FNDA:132,_ZNSt3__122__compressed_pair_elemIPFiP7__sFILEELi1ELb0EEC2IS4_vEEOT_
FNDA:1188,_ZNSt3__19allocatorI6OpcodeE8allocateEmPKv
FNDA:67452,_ZNSt3__19allocatorI6OpcodeE7destroyEPS1_
FNDA:112,_ZNSt3__116allocator_traitsINS_9allocatorIhEEE39__select_on_container_copy_constructionENS_17integral_constantIbLb0EEERKS2_
FNDA:264,_ZNSt3__117__compressed_pairIP6OpcodeNS_9allocatorIS1_EEEC1IDnLb1EEEOT_
FNDA:0,_ZNSt3__117__compressed_pairIPN5boost2io6detail11format_itemIcNS_11char_traitsIcEENS_9allocatorIcEEEERNS7_IS9_EEEC2IDnSC_EEOT_OT0_
FNDA:0,_ZNSt3__122__compressed_pair_elemINS_9allocatorINS_11__tree_nodeINS_12__value_typeIPKN5boost6system14error_categoryENS_10unique_ptrINS5_6detail12std_categoryENS_14default_deleteISB_EEEEEEPvEEEELi1ELb1EEC2Ev
FNDA:33792,_ZNSt3__19allocatorI6OpcodeE9constructIS1_JRKS1_EEEvPT_DpOT0_
FNDA:0,_ZNSt3__117__compressed_pairIPNS_12basic_stringIcNS_11char_traitsIcEENS_9allocatorIcEEEENS4_IS6_EEEC1IDnS8_EEOT_OT0_
FNDA:0,_ZNSt3__19allocatorImEC2IbEERKNS0_IT_EE
FNDA:0,_ZNSt3__116allocator_traitsINS_9allocatorINS_12basic_stringIcNS_11char_traitsIcEENS1_IcEEEEEEE9constructIS6_JRKS6_EEEvRS7_PT_DpOT0_
FNDA:0,_ZNSt3__116allocator_traitsINS_9allocatorINS_11__tree_nodeINS_12__value_typeIPKN5boost6system14error_categoryENS_10unique_ptrINS5_6detail12std_categoryENS_14default_deleteISB_EEEEEEPvEEEEE11__constructINS_4pairIKS8_SE_EEJSN_EEEvNS_17integral_constantIbLb1EEERSI_PT_DpOT0_
FNDA:112,_ZNSt3__117__compressed_pairIPhNS_9allocatorIhEEEC2IDnS3_EEOT_OT0_
FNDA:0,_ZNSt3__122__compressed_pair_elemINS_22__tree_node_destructorINS_9allocatorINS_11__tree_nodeINS_12__value_typeIPKN5boost6system14error_categoryENS_10unique_ptrINS6_6detail12std_categoryENS_14default_deleteISC_EEEEEEPvEEEEEELi1ELb0EE5__getEv
FNDA:0,_ZNSt3__116allocator_traitsINS_9allocatorINS_12basic_stringIcNS_11char_traitsIcEENS1_IcEEEEEEE11__constructIS6_JRKS6_EEEvNS_17integral_constantIbLb1EEERS7_PT_DpOT0_
FNDA:413,_ZNKSt3__117__compressed_pairIPhNS_9allocatorIhEEE6secondEv
FNDA:0,_ZNKSt3__117__compressed_pairIPNS_11__tree_nodeINS_12__value_typeIPKN5boost6system14error_categoryENS_10unique_ptrINS4_6detail12std_categoryENS_14default_deleteISA_EEEEEEPvEENS_22__tree_node_destructorINS_9allocatorISG_EEEEE5firstEv
FNDA:574464,_ZNSt3__117__compressed_pairIPNS_12basic_stringIcNS_11char_traitsIcEENS_9allocatorIcEEEENS4_IS6_EEE6secondEv
FNDA:0,_ZNKSt3__117__compressed_pairIPN5boost6system6detail12std_categoryENS_14default_deleteIS4_EEE5firstEv
FNDA:0,_ZNKSt3__117__compressed_pairImNS_9allocatorImEEE5firstEv
FNDA:0,_ZNSt3__116allocator_traitsINS_9allocatorINS_12basic_stringIcNS_11char_traitsIcEENS1_IcEEEEEEE9constructIS6_JRS6_EEEvRS7_PT_DpOT0_
FNDA:135168,_ZNSt3__117__compressed_pairIPNS_12basic_stringIcNS_11char_traitsIcEENS_9allocatorIcEEEERNS4_IS6_EEEC1IDnS9_EEOT_OT0_
FNDA:0,_ZNSt3__110unique_ptrINS_11__tree_nodeINS_12__value_typeIPKN5boost6system14error_categoryENS0_INS4_6detail12std_categoryENS_14default_deleteIS9_EEEEEEPvEENS_22__tree_node_destructorINS_9allocatorISF_EEEEE11get_deleterEv
FNDA:175611,_ZNSt3__122__compressed_pair_elemINS_12basic_stringIcNS_11char_traitsIcEENS_9allocatorIcEEE5__repELi0ELb0EEC2Ev
FNDA:0,_ZNSt3__19allocatorINS_11__tree_nodeINS_12__value_typeIPKN5boost6system14error_categoryENS_10unique_ptrINS4_6detail12std_categoryENS_14default_deleteISA_EEEEEEPvEEEC2Ev
FNDA:405504,_ZNSt3__19allocatorINS_12basic_stringIcNS_11char_traitsIcEENS0_IcEEEEE7destroyEPS5_
FNDA:0,_ZNSt3__117__compressed_pairIPN5boost2io6detail11format_itemIcNS_11char_traitsIcEENS_9allocatorIcEEEENS7_IS9_EEE5firstEv
FNDA:0,_ZNSt3__19allocatorIN5boost2io6detail11format_itemIcNS_11char_traitsIcEENS0_IcEEEEE7destroyEPS8_
FNDA:0,_ZNSt3__117__compressed_pairIPN5boost2io6detail11format_itemIcNS_11char_traitsIcEENS_9allocatorIcEEEENS7_IS9_EEEC2IDnLb1EEEOT_
FNDA:67584,_ZNSt3__117__compressed_pairIPNS_12basic_stringIcNS_11char_traitsIcEENS_9allocatorIcEEEENS4_IS6_EEEC2IDnLb1EEEOT_
FNDA:0,_ZNSt3__122__compressed_pair_elemIRNS_9allocatorIhEELi1ELb0EEC2IS3_vEEOT_
FNDA:1188,_ZNSt3__116allocator_traitsINS_9allocatorI6OpcodeEEE10__max_sizeENS_17integral_constantIbLb1EEERKS3_
FNDA:0,_ZNSt3__117__compressed_pairINS_15__tree_end_nodeIPNS_16__tree_node_baseIPvEEEENS_9allocatorINS_11__tree_nodeINS_12__value_typeIPKN5boost6system14error_categoryENS_10unique_ptrINSB_6detail12std_categoryENS_14default_deleteISH_EEEEEES3_EEEEEC1ILb1EvEEv
FNDA:35376,_ZNSt3__117__compressed_pairIP6OpcodeNS_9allocatorIS1_EEE5firstEv
FNDA:0,_ZNSt3__117__compressed_pairImNS_19__map_value_compareIPKN5boost6system14error_categoryENS_12__value_typeIS6_NS_10unique_ptrINS3_6detail12std_categoryENS_14default_deleteISA_EEEEEENS9_12cat_ptr_lessELb1EEEEC2IiRKSG_EEOT_OT0_
FNDA:0,_ZNSt3__122__compressed_pair_elemINS_9allocatorIN5boost2io6detail11format_itemIcNS_11char_traitsIcEENS1_IcEEEEEELi1ELb1EE5__getEv
FNDA:1188,_ZNSt3__117__compressed_pairIP6OpcodeRNS_9allocatorIS1_EEEC2IDnS5_EEOT_OT0_
FNDA:0,_ZNSt3__117__compressed_pairIPNS_11__tree_nodeINS_12__value_typeIPKN5boost6system14error_categoryENS_10unique_ptrINS4_6detail12std_categoryENS_14default_deleteISA_EEEEEEPvEENS_22__tree_node_destructorINS_9allocatorISG_EEEEEC1IRSH_SL_EEOT_OT0_
FNDA:0,_ZNSt3__116allocator_traitsINS_9allocatorIN5boost2io6detail11format_itemIcNS_11char_traitsIcEENS1_IcEEEEEEE10deallocateERSA_PS9_m
FNDA:0,_ZNSt3__114pointer_traitsIPNS_12__value_typeIPKN5boost6system14error_categoryENS_10unique_ptrINS3_6detail12std_categoryENS_14default_deleteIS9_EEEEEEE10pointer_toERSD_
FNDA:268,_ZNSt3__110unique_ptrI8EmulatorNS_14default_deleteIS1_EEED2Ev
FNDA:33660,_ZNSt3__116allocator_traitsINS_9allocatorI6OpcodeEEE11__constructIS2_JS2_EEEvNS_17integral_constantIbLb1EEERS3_PT_DpOT0_
FNDA:0,_ZNKSt3__122__compressed_pair_elemINS_9allocatorIN5boost2io6detail11format_itemIcNS_11char_traitsIcEENS1_IcEEEEEELi1ELb1EE5__getEv
FNDA:532,_ZNSt3__110unique_ptrI8EmulatorNS_14default_deleteIS1_EEE5resetEPS1_
FNDA:133,_ZNSt3__117__compressed_pairIP3RAMNS_14default_deleteIS1_EEEC1IRS2_Lb1EEEOT_
FNDA:135168,_ZNSt3__19allocatorINS_12basic_stringIcNS_11char_traitsIcEENS0_IcEEEEE8allocateEmPKv
FNDA:1509,_ZNKSt3__122__compressed_pair_elemIPhLi0ELb0EE5__getEv
FNDA:0,_ZNSt3__116allocator_traitsINS_9allocatorIN5boost2io6detail11format_itemIcNS_11char_traitsIcEENS1_IcEEEEEEE20__construct_backwardIPS9_EEvRSA_T_SF_RSF_
FNDA:8717919,_ZNSt3__122__compressed_pair_elemINS_9allocatorIhEELi1ELb1EE5__getEv
FNDA:1716,_ZNSt3__116allocator_traitsINS_9allocatorIcEEE8allocateERS2_m
FNDA:132,_ZNSt3__122__compressed_pair_elemIP8EmulatorLi0ELb0EEC2IRS2_vEEOT_
FNDA:0,_ZNSt3__19allocatorIN5boost2io6detail11format_itemIcNS_11char_traitsIcEENS0_IcEEEEE8allocateEmPKv
FNDA:37752,_ZNSt3__122__compressed_pair_elemIP6OpcodeLi0ELb0EE5__getEv
FNDA:135168,_ZNSt3__122__compressed_pair_elemIRNS_9allocatorINS_12basic_stringIcNS_11char_traitsIcEENS1_IcEEEEEELi1ELb0EEC2IS8_vEEOT_
FNDA:0,_ZNSt3__122__compressed_pair_elemIRNS_9allocatorIN5boost2io6detail11format_itemIcNS_11char_traitsIcEENS1_IcEEEEEELi1ELb0EE5__getEv
FNDA:132,_ZNSt3__122__compressed_pair_elemIP7__sFILELi0ELb0EEC2IRS2_vEEOT_
FNDA:0,_ZNSt3__19allocatorIcE10deallocateEPcm
FNDA:135,_ZNSt3__110unique_ptrI3RAMNS_14default_deleteIS1_EEE5resetEPS1_
FNDA:175611,_ZNSt3__117__compressed_pairINS_12basic_stringIcNS_11char_traitsIcEENS_9allocatorIcEEE5__repES5_EC2ILb1EvEEv
FNDA:35904,_ZNSt3__117__compressed_pairIP6OpcodeRNS_9allocatorIS1_EEE6secondEv
FNDA:35904,_ZNSt3__122__compressed_pair_elemIRNS_9allocatorI6OpcodeEELi1ELb0EE5__getEv
FNDA:1188,_ZNSt3__117__compressed_pairIP6OpcodeRNS_9allocatorIS1_EEEC1IDnS5_EEOT_OT0_
FNDA:396,_ZNSt3__117__compressed_pairIP8EmulatorNS_14default_deleteIS1_EEE6secondEv
FNDA:560,_ZNSt3__117__compressed_pairIP3CPUNS_14default_deleteIS1_EEE5firstEv
FNDA:0,_ZNSt3__117__compressed_pairIPNS_11__tree_nodeINS_12__value_typeIPKN5boost6system14error_categoryENS_10unique_ptrINS4_6detail12std_categoryENS_14default_deleteISA_EEEEEEPvEENS_22__tree_node_destructorINS_9allocatorISG_EEEEE5firstEv
FNDA:1188,_ZNSt3__116allocator_traitsINS_9allocatorI6OpcodeEEE10deallocateERS3_PS2_m
FNDA:0,_ZNSt3__122__compressed_pair_elemIPN5boost6system6detail12std_categoryELi0ELb0EEC2IRS5_vEEOT_
FNDA:2376,_ZNKSt3__19allocatorI6OpcodeE8max_sizeEv
FNDA:1594428,_ZNSt3__116allocator_traitsINS_9allocatorIcEEE8max_sizeERKS2_
FNDA:0,_ZNSt3__117__compressed_pairImNS_19__map_value_compareIPKN5boost6system14error_categoryENS_12__value_typeIS6_NS_10unique_ptrINS3_6detail12std_categoryENS_14default_deleteISA_EEEEEENS9_12cat_ptr_lessELb1EEEE6secondEv
FNDA:135,_ZNSt3__117__compressed_pairIP3CPUNS_14default_deleteIS1_EEEC1IRS2_Lb1EEEOT_
FNDA:0,_ZNSt3__117__compressed_pairIPN5boost6system6detail12std_categoryENS_14default_deleteIS4_EEE6secondEv
FNDA:1188,_ZNKSt3__122__compressed_pair_elemINS_9allocatorI6OpcodeEELi1ELb1EE5__getEv
FNDA:112,_ZNSt3__116allocator_traitsINS_9allocatorIhEEE25__construct_range_forwardIhhhhEENS_9enable_ifIXaaaasr31is_trivially_move_constructibleIT0_EE5valuesr7is_sameIT1_T2_EE5valueooL_ZNS_17integral_constantIbLb1EE5valueEEntsr15__has_constructIS2_PS6_RT_EE5valueEvE4typeERS2_PSC_SH_RSB_
FNDA:0,_ZNSt3__19allocatorImE10deallocateEPmm
FNDA:135,_ZNSt3__110unique_ptrI3CPUNS_14default_deleteIS1_EEEC1ILb1EvEEPS1_
FNDA:0,_ZNSt3__117__compressed_pairImNS_19__map_value_compareIPKN5boost6system14error_categoryENS_12__value_typeIS6_NS_10unique_ptrINS3_6detail12std_categoryENS_14default_deleteISA_EEEEEENS9_12cat_ptr_lessELb1EEEEC1IiRKSG_EEOT_OT0_
FNDA:301,_ZNSt3__116allocator_traitsINS_9allocatorIhEEE8allocateERS2_m
FNDA:270,_ZNSt3__122__compressed_pair_elemIP3RAMLi0ELb0EE5__getEv
FNDA:145464,_ZNSt3__1L16__to_raw_pointerI6OpcodeEEPT_S3_
FNDA:0,_ZNSt3__122__compressed_pair_elemINS_14default_deleteIN5boost6system6detail12std_categoryEEELi1ELb1EEC2IS6_vEEOT_
FNDA:0,_ZNSt3__110unique_ptrIN5boost6system6detail12std_categoryENS_14default_deleteIS4_EEE5resetEPS4_
FNDA:0,_ZNSt3__117__compressed_pairIPhRNS_9allocatorIhEEEC1IDnS4_EEOT_OT0_
FNDA:112,_ZNSt3__117__compressed_pairIPhNS_9allocatorIhEEEC1IDnS3_EEOT_OT0_
FNDA:264,_ZNSt3__19allocatorI6OpcodeEC2Ev
FNDA:33792,_ZNSt3__116allocator_traitsINS_9allocatorI6OpcodeEEE9constructIS2_JRKS2_EEEvRS3_PT_DpOT0_
FNDA:132,_ZNSt3__110unique_ptrI7__sFILEPFiPS1_EE7releaseEv
FNDA:0,_ZNSt3__122__compressed_pair_elemINS_22__tree_node_destructorINS_9allocatorINS_11__tree_nodeINS_12__value_typeIPKN5boost6system14error_categoryENS_10unique_ptrINS6_6detail12std_categoryENS_14default_deleteISC_EEEEEEPvEEEEEELi1ELb0EEC2ISK_vEEOT_
FNDA:0,_ZNSt3__1L16__swap_allocatorINS_9allocatorImEEEEvRT_S4_NS_17integral_constantIbLb0EEE
FNDA:405504,_ZNSt3__116allocator_traitsINS_9allocatorINS_12basic_stringIcNS_11char_traitsIcEENS1_IcEEEEEEE9__destroyIS6_EEvNS_17integral_constantIbLb1EEERS7_PT_
FNDA:175611,_ZNSt3__122__compressed_pair_elemINS_9allocatorIcEELi1ELb1EEC2Ev
FNDA:33660,_ZNSt3__19allocatorI6OpcodeE9constructIS1_JS1_EEEvPT_DpOT0_
FNDA:132,_ZNSt3__117__compressed_pairIP8EmulatorNS_14default_deleteIS1_EEEC2IRS2_Lb1EEEOT_
FNDA:413,_ZNKSt3__122__compressed_pair_elemINS_9allocatorIhEELi1ELb1EE5__getEv
FNDA:0,_ZNSt3__110unique_ptrIN5boost6system6detail12std_categoryENS_14default_deleteIS4_EEED2Ev
FNDA:268,_ZNSt3__110unique_ptrI8EmulatorNS_14default_deleteIS1_EEED1Ev
FNDA:1188,_ZNSt3__116allocator_traitsINS_9allocatorI6OpcodeEEE8allocateERS3_m
FNDA:1188,_ZNSt3__122__compressed_pair_elemIRNS_9allocatorI6OpcodeEELi1ELb0EEC2IS4_vEEOT_
FNDA:301,_ZNSt3__116allocator_traitsINS_9allocatorIhEEE10deallocateERS2_Phm
FNDA:135,_ZNKSt3__114default_deleteI3CPUEclEPS1_
FNF:371
FNH:198
DA:988,694452
DA:990,694452
DA:1106,19875074
DA:1108,19875074
DA:1546,138373
DA:1547,138373
DA:1554,136657
DA:1555,136657
DA:1560,9320316
DA:1561,18640632
DA:1562,18640632
DA:1595,9189970
DA:1596,9189970
DA:1599,1731085
DA:1600,1731085
DA:1604,112
DA:1605,112
DA:1606,112
DA:1607,112
DA:1643,0
DA:1645,0
DA:1646,0
DA:1647,0
DA:1662,168
DA:1664,168
DA:1665,168
DA:1667,168
DA:1668,168
DA:1669,168
DA:1670,168
DA:1676,136356
DA:1678,406560
DA:1680,270204
DA:1681,270204
DA:1683,136356
DA:1695,0
DA:1697,0
DA:1698,0
DA:1699,0
DA:1700,0
DA:1701,0
DA:1717,9320316
DA:1718,9320316
DA:1742,9189970
DA:1743,9189970
DA:1746,0
DA:1748,0
DA:1749,0
DA:1752,1731085
DA:1753,1731085
DA:1764,112
DA:1765,112
DA:1798,243650
DA:1802,0
DA:1809,138373
DA:1811,138373
DA:1812,0
DA:1814,138373
DA:1816,136657
DA:1817,136657
DA:1818,1869458
DA:1819,1869458
DA:1824,9320316
DA:1826,9320316
DA:1827,9320316
DA:1881,9189970
DA:2140,175611
DA:2147,341527
DA:2148,341527
DA:2150,341527
DA:2163,2690675
DA:2165,5000525
DA:2179,243650
DA:2186,112
DA:2187,112
DA:2188,224
DA:2202,9363939
DA:2204,1731197
DA:2234,351222
DA:2240,136878
DA:2241,136878
DA:2245,0
DA:2246,0
DA:2250,273200
DA:2251,273200
DA:2279,2181683
DA:2280,2181683
DA:2284,5000525
DA:2285,5000525
DA:2289,9872931
DA:2290,9872931
DA:2294,1731197
DA:2295,1731197
DA:2334,402
DA:2339,402
DA:2340,402
DA:2471,800
DA:2482,264
DA:2483,264
DA:2486,264
DA:2494,0
DA:2495,0
DA:2496,0
DA:2517,135
DA:2518,135
DA:2519,135
DA:2520,135
DA:2606,1612
DA:2616,0
DA:2617,0
DA:2620,4664
DA:2621,4664
DA:2624,0
DA:2625,0
DA:2628,135
DA:2629,135
DA:2641,267
DA:2642,267
DA:2643,267
DA:2644,267
DA:2648,1076
DA:2649,1076
DA:2650,1076
DA:2651,1076
DA:2652,402
DA:2653,1076
DA:3130,400
DA:3132,400
DA:3133,0
DA:5627,33792
LF:130
LH:105
end_of_record
TN:
SF:/Applications/Xcode.app/Contents/Developer/Toolchains/XcodeDefault.xctoolchain/usr/include/c++/v1/new
FN:215,_ZNSt3__1L24__is_overaligned_for_newEm
FN:223,_ZNSt3__1L17__libcpp_allocateEmm
FN:245,_ZNSt3__117_DeallocateCaller33__do_deallocate_handle_size_alignEPvmm
FN:275,_ZNSt3__117_DeallocateCaller27__do_deallocate_handle_sizeEPvm
FN:285,_ZNSt3__117_DeallocateCaller27__do_deallocate_handle_sizeEPvmSt11align_val_t
FN:307,_ZNSt3__117_DeallocateCaller9__do_callISt11align_val_tEEvPvT_
FN:316,_ZNSt3__117_DeallocateCaller9__do_callEPv
FN:325,_ZNSt3__1L19__libcpp_deallocateEPvmm
FN:335,_ZNSt3__19__launderINS_4pairIKPKN5boost6system14error_categoryENS_10unique_ptrINS3_6detail12std_categoryENS_14default_deleteISA_EEEEEEEEPT_SG_
FN:335,_ZNSt3__19__launderIKNS_4pairIKPKN5boost6system14error_categoryENS_10unique_ptrINS3_6detail12std_categoryENS_14default_deleteISA_EEEEEEEEPT_SH_
FN:350,_ZNSt3__1L7launderIKNS_4pairIKPKN5boost6system14error_categoryENS_10unique_ptrINS3_6detail12std_categoryENS_14default_deleteISA_EEEEEEEEPT_SH_
FN:350,_ZNSt3__1L7launderINS_4pairIKPKN5boost6system14error_categoryENS_10unique_ptrINS3_6detail12std_categoryENS_14default_deleteISA_EEEEEEEEPT_SG_
FNDA:0,_ZNSt3__117_DeallocateCaller9__do_callISt11align_val_tEEvPvT_
FNDA:138373,_ZNSt3__1L17__libcpp_allocateEmm
FNDA:136657,_ZNSt3__117_DeallocateCaller9__do_callEPv
FNDA:136657,_ZNSt3__117_DeallocateCaller27__do_deallocate_handle_sizeEPvm
FNDA:0,_ZNSt3__117_DeallocateCaller27__do_deallocate_handle_sizeEPvmSt11align_val_t
FNDA:0,_ZNSt3__1L7launderINS_4pairIKPKN5boost6system14error_categoryENS_10unique_ptrINS3_6detail12std_categoryENS_14default_deleteISA_EEEEEEEEPT_SG_
FNDA:0,_ZNSt3__19__launderIKNS_4pairIKPKN5boost6system14error_categoryENS_10unique_ptrINS3_6detail12std_categoryENS_14default_deleteISA_EEEEEEEEPT_SH_
FNDA:136657,_ZNSt3__1L19__libcpp_deallocateEPvmm
FNDA:0,_ZNSt3__19__launderINS_4pairIKPKN5boost6system14error_categoryENS_10unique_ptrINS3_6detail12std_categoryENS_14default_deleteISA_EEEEEEEEPT_SG_
FNDA:136657,_ZNSt3__117_DeallocateCaller33__do_deallocate_handle_size_alignEPvmm
FNDA:0,_ZNSt3__1L7launderIKNS_4pairIKPKN5boost6system14error_categoryENS_10unique_ptrINS3_6detail12std_categoryENS_14default_deleteISA_EEEEEEEEPT_SH_
FNDA:275030,_ZNSt3__1L24__is_overaligned_for_newEm
FNF:12
FNH:6
DA:215,275030
DA:217,275030
DA:223,138373
DA:225,138373
DA:226,0
DA:230,0
DA:239,138373
DA:241,138373
DA:245,136657
DA:250,136657
DA:251,0
DA:252,0
DA:254,136657
DA:257,136657
DA:275,136657
DA:278,136657
DA:285,0
DA:288,0
DA:307,0
DA:312,0
DA:316,136657
DA:320,136657
DA:325,136657
DA:326,136657
DA:327,136657
DA:335,0
DA:340,0
DA:350,0
DA:352,0
LF:29
LH:17
end_of_record
TN:
SF:/Applications/Xcode.app/Contents/Developer/Toolchains/XcodeDefault.xctoolchain/usr/include/c++/v1/ostream
FN:165,_ZNSt3__113basic_ostreamIcNS_11char_traitsIcEEEC2EPNS_15basic_streambufIcS2_EE
FN:237,_ZNSt3__113basic_ostreamIcNS_11char_traitsIcEEEC2Ev
FN:255,_ZNKSt3__113basic_ostreamIcNS_11char_traitsIcEEE6sentrycvbEv
FN:715,_ZNSt3__124__put_character_sequenceIcNS_11char_traitsIcEEEERNS_13basic_ostreamIT_T0_EES7_PKS4_m
FN:789,_ZNSt3__1lsINS_11char_traitsIcEEEERNS_13basic_ostreamIcT_EES6_c
FN:863,_ZNSt3__1lsINS_11char_traitsIcEEEERNS_13basic_ostreamIcT_EES6_PKc
FN:1045,_ZNSt3__1lsIcNS_11char_traitsIcEENS_9allocatorIcEEEERNS_13basic_ostreamIT_T0_EES9_RKNS_12basic_stringIS6_S7_T1_EE
FN:1089,_ZNSt3__1lsIcNS_11char_traitsIcEELm8EEERNS_13basic_ostreamIT_T0_EES7_RKNS_6bitsetIXT1_EEE
FNDA:0,_ZNSt3__1lsIcNS_11char_traitsIcEENS_9allocatorIcEEEERNS_13basic_ostreamIT_T0_EES9_RKNS_12basic_stringIS6_S7_T1_EE
FNDA:0,_ZNSt3__1lsINS_11char_traitsIcEEEERNS_13basic_ostreamIcT_EES6_c
FNDA:0,_ZNSt3__1lsIcNS_11char_traitsIcEELm8EEERNS_13basic_ostreamIT_T0_EES7_RKNS_6bitsetIXT1_EEE
FNDA:0,_ZNKSt3__113basic_ostreamIcNS_11char_traitsIcEEE6sentrycvbEv
FNDA:0,_ZNSt3__113basic_ostreamIcNS_11char_traitsIcEEEC2Ev
FNDA:0,_ZNSt3__1lsINS_11char_traitsIcEEEERNS_13basic_ostreamIcT_EES6_PKc
FNDA:0,_ZNSt3__124__put_character_sequenceIcNS_11char_traitsIcEEEERNS_13basic_ostreamIT_T0_EES7_PKS4_m
FNDA:5712,_ZNSt3__113basic_ostreamIcNS_11char_traitsIcEEEC2EPNS_15basic_streambufIcS2_EE
FNF:8
FNH:1
DA:165,5712
DA:166,5712
DA:237,0
DA:255,0
DA:715,0
DA:722,0
DA:723,0
DA:726,0
DA:727,0
DA:728,0
DA:729,0
DA:730,0
DA:731,0
DA:732,0
DA:733,0
DA:734,0
DA:735,0
DA:737,0
DA:740,0
DA:741,0
DA:743,0
DA:744,0
DA:789,0
DA:791,0
DA:863,0
DA:865,0
DA:1045,0
DA:1048,0
DA:1089,0
DA:1091,0
DA:1092,0
DA:1093,0
DA:1094,0
LF:33
LH:2
end_of_record
TN:
SF:/Applications/Xcode.app/Contents/Developer/Toolchains/XcodeDefault.xctoolchain/usr/include/c++/v1/random
FN:2111,_ZNSt3__123mersenne_twister_engineIjLm32ELm624ELm397ELm31ELj2567483615ELm11ELj4294967295ELm7ELj2636928640ELm15ELj4022730752ELm18ELj1812433253EEC1Ej
FN:2111,_ZNSt3__123mersenne_twister_engineIjLm32ELm624ELm397ELm31ELj2567483615ELm11ELj4294967295ELm7ELj2636928640ELm15ELj4022730752ELm18ELj1812433253EEC2Ej
FN:2188,_ZNSt3__123mersenne_twister_engineIjLm32ELm624ELm397ELm31ELj2567483615ELm11ELj4294967295ELm7ELj2636928640ELm15ELj4022730752ELm18ELj1812433253EE8__lshiftILm7EEENS_9enable_ifIXltT_Lm32EEjE4typeEj
FN:2188,_ZNSt3__123mersenne_twister_engineIjLm32ELm624ELm397ELm31ELj2567483615ELm11ELj4294967295ELm7ELj2636928640ELm15ELj4022730752ELm18ELj1812433253EE8__lshiftILm15EEENS_9enable_ifIXltT_Lm32EEjE4typeEj
FN:2208,_ZNSt3__123mersenne_twister_engineIjLm32ELm624ELm397ELm31ELj2567483615ELm11ELj4294967295ELm7ELj2636928640ELm15ELj4022730752ELm18ELj1812433253EE8__rshiftILm18EEENS_9enable_ifIXltT_L_ZNS1_3_DtEEEjE4typeEj
FN:2208,_ZNSt3__123mersenne_twister_engineIjLm32ELm624ELm397ELm31ELj2567483615ELm11ELj4294967295ELm7ELj2636928640ELm15ELj4022730752ELm18ELj1812433253EE8__rshiftILm11EEENS_9enable_ifIXltT_L_ZNS1_3_DtEEEjE4typeEj
FN:2208,_ZNSt3__123mersenne_twister_engineIjLm32ELm624ELm397ELm31ELj2567483615ELm11ELj4294967295ELm7ELj2636928640ELm15ELj4022730752ELm18ELj1812433253EE8__rshiftILm1EEENS_9enable_ifIXltT_L_ZNS1_3_DtEEEjE4typeEj
FN:2208,_ZNSt3__123mersenne_twister_engineIjLm32ELm624ELm397ELm31ELj2567483615ELm11ELj4294967295ELm7ELj2636928640ELm15ELj4022730752ELm18ELj1812433253EE8__rshiftILm30EEENS_9enable_ifIXltT_L_ZNS1_3_DtEEEjE4typeEj
FN:2310,_ZNSt3__123mersenne_twister_engineIjLm32ELm624ELm397ELm31ELj2567483615ELm11ELj4294967295ELm7ELj2636928640ELm15ELj4022730752ELm18ELj1812433253EE4seedEj
FN:2375,_ZNSt3__123mersenne_twister_engineIjLm32ELm624ELm397ELm31ELj2567483615ELm11ELj4294967295ELm7ELj2636928640ELm15ELj4022730752ELm18ELj1812433253EEclEv
FNDA:671,_ZNSt3__123mersenne_twister_engineIjLm32ELm624ELm397ELm31ELj2567483615ELm11ELj4294967295ELm7ELj2636928640ELm15ELj4022730752ELm18ELj1812433253EE8__lshiftILm7EEENS_9enable_ifIXltT_Lm32EEjE4typeEj
FNDA:671,_ZNSt3__123mersenne_twister_engineIjLm32ELm624ELm397ELm31ELj2567483615ELm11ELj4294967295ELm7ELj2636928640ELm15ELj4022730752ELm18ELj1812433253EE8__rshiftILm1EEENS_9enable_ifIXltT_L_ZNS1_3_DtEEEjE4typeEj
FNDA:671,_ZNSt3__123mersenne_twister_engineIjLm32ELm624ELm397ELm31ELj2567483615ELm11ELj4294967295ELm7ELj2636928640ELm15ELj4022730752ELm18ELj1812433253EE8__rshiftILm18EEENS_9enable_ifIXltT_L_ZNS1_3_DtEEEjE4typeEj
FNDA:671,_ZNSt3__123mersenne_twister_engineIjLm32ELm624ELm397ELm31ELj2567483615ELm11ELj4294967295ELm7ELj2636928640ELm15ELj4022730752ELm18ELj1812433253EE8__rshiftILm11EEENS_9enable_ifIXltT_L_ZNS1_3_DtEEEjE4typeEj
FNDA:671,_ZNSt3__123mersenne_twister_engineIjLm32ELm624ELm397ELm31ELj2567483615ELm11ELj4294967295ELm7ELj2636928640ELm15ELj4022730752ELm18ELj1812433253EEclEv
FNDA:671,_ZNSt3__123mersenne_twister_engineIjLm32ELm624ELm397ELm31ELj2567483615ELm11ELj4294967295ELm7ELj2636928640ELm15ELj4022730752ELm18ELj1812433253EEC1Ej
FNDA:418033,_ZNSt3__123mersenne_twister_engineIjLm32ELm624ELm397ELm31ELj2567483615ELm11ELj4294967295ELm7ELj2636928640ELm15ELj4022730752ELm18ELj1812433253EE8__rshiftILm30EEENS_9enable_ifIXltT_L_ZNS1_3_DtEEEjE4typeEj
FNDA:671,_ZNSt3__123mersenne_twister_engineIjLm32ELm624ELm397ELm31ELj2567483615ELm11ELj4294967295ELm7ELj2636928640ELm15ELj4022730752ELm18ELj1812433253EE4seedEj
FNDA:671,_ZNSt3__123mersenne_twister_engineIjLm32ELm624ELm397ELm31ELj2567483615ELm11ELj4294967295ELm7ELj2636928640ELm15ELj4022730752ELm18ELj1812433253EEC2Ej
FNDA:671,_ZNSt3__123mersenne_twister_engineIjLm32ELm624ELm397ELm31ELj2567483615ELm11ELj4294967295ELm7ELj2636928640ELm15ELj4022730752ELm18ELj1812433253EE8__lshiftILm15EEENS_9enable_ifIXltT_Lm32EEjE4typeEj
FNF:10
FNH:10
DA:2111,1342
DA:2112,1342
DA:2188,1342
DA:2208,420046
DA:2310,671
DA:2313,671
DA:2314,418704
DA:2315,418033
DA:2316,671
DA:2317,671
DA:2375,671
DA:2377,671
DA:2378,671
DA:2380,671
DA:2381,671
DA:2382,671
DA:2383,671
DA:2384,671
DA:2385,671
DA:2386,671
DA:2387,671
LF:21
LH:21
end_of_record
TN:
SF:/Applications/Xcode.app/Contents/Developer/Toolchains/XcodeDefault.xctoolchain/usr/include/c++/v1/sstream
FN:242,_ZNSt3__115basic_stringbufIcNS_11char_traitsIcEENS_9allocatorIcEEEC1Ej
FN:242,_ZNSt3__115basic_stringbufIcNS_11char_traitsIcEENS_9allocatorIcEEEC2Ej
FN:439,_ZNKSt3__115basic_stringbufIcNS_11char_traitsIcEENS_9allocatorIcEEE3strEv
FN:454,_ZNSt3__115basic_stringbufIcNS_11char_traitsIcEENS_9allocatorIcEEE3strERKNS_12basic_stringIcS2_S4_EE
FN:487,_ZNSt3__115basic_stringbufIcNS_11char_traitsIcEENS_9allocatorIcEEE9underflowEv
FN:503,_ZNSt3__115basic_stringbufIcNS_11char_traitsIcEENS_9allocatorIcEEE9pbackfailEi
FN:527,_ZNSt3__115basic_stringbufIcNS_11char_traitsIcEENS_9allocatorIcEEE8overflowEi
FN:569,_ZNSt3__115basic_stringbufIcNS_11char_traitsIcEENS_9allocatorIcEEE7seekoffExNS_8ios_base7seekdirEj
FN:621,_ZNSt3__115basic_stringbufIcNS_11char_traitsIcEENS_9allocatorIcEEE7seekposENS_4fposI11__mbstate_tEEj
FN:909,_ZNSt3__118basic_stringstreamIcNS_11char_traitsIcEENS_9allocatorIcEEEC1Ej
FN:970,_ZNKSt3__118basic_stringstreamIcNS_11char_traitsIcEENS_9allocatorIcEEE3strEv
FNDA:0,_ZNSt3__115basic_stringbufIcNS_11char_traitsIcEENS_9allocatorIcEEE7seekposENS_4fposI11__mbstate_tEEj
FNDA:0,_ZNSt3__115basic_stringbufIcNS_11char_traitsIcEENS_9allocatorIcEEEC1Ej
FNDA:0,_ZNSt3__118basic_stringstreamIcNS_11char_traitsIcEENS_9allocatorIcEEEC1Ej
FNDA:0,_ZNSt3__115basic_stringbufIcNS_11char_traitsIcEENS_9allocatorIcEEE3strERKNS_12basic_stringIcS2_S4_EE
FNDA:5712,_ZNSt3__115basic_stringbufIcNS_11char_traitsIcEENS_9allocatorIcEEEC2Ej
FNDA:0,_ZNSt3__115basic_stringbufIcNS_11char_traitsIcEENS_9allocatorIcEEE9underflowEv
FNDA:0,_ZNSt3__115basic_stringbufIcNS_11char_traitsIcEENS_9allocatorIcEEE9pbackfailEi
FNDA:0,_ZNSt3__115basic_stringbufIcNS_11char_traitsIcEENS_9allocatorIcEEE8overflowEi
FNDA:0,_ZNKSt3__118basic_stringstreamIcNS_11char_traitsIcEENS_9allocatorIcEEE3strEv
FNDA:0,_ZNKSt3__115basic_stringbufIcNS_11char_traitsIcEENS_9allocatorIcEEE3strEv
FNDA:0,_ZNSt3__115basic_stringbufIcNS_11char_traitsIcEENS_9allocatorIcEEE7seekoffExNS_8ios_base7seekdirEj
FNF:11
FNH:1
DA:213,11424
DA:242,5712
DA:243,5712
DA:244,5712
DA:245,11424
DA:246,5712
DA:439,0
DA:441,0
DA:443,0
DA:444,0
DA:445,0
DA:447,0
DA:448,0
DA:449,0
DA:450,0
DA:454,0
DA:456,0
DA:457,0
DA:458,0
DA:460,0
DA:461,0
DA:462,0
DA:463,0
DA:464,0
DA:465,0
DA:467,0
DA:468,0
DA:469,0
DA:470,0
DA:471,0
DA:472,0
DA:474,0
DA:476,0
DA:477,0
DA:479,0
DA:480,0
DA:481,0
DA:482,0
DA:483,0
DA:487,0
DA:489,0
DA:490,0
DA:491,0
DA:493,0
DA:494,0
DA:495,0
DA:496,0
DA:497,0
DA:498,0
DA:499,0
DA:503,0
DA:505,0
DA:506,0
DA:507,0
DA:509,0
DA:511,0
DA:512,0
DA:514,0
DA:515,0
DA:517,0
DA:518,0
DA:519,0
DA:521,0
DA:522,0
DA:523,0
DA:527,0
DA:529,0
DA:531,0
DA:532,0
DA:534,0
DA:535,0
DA:540,0
DA:541,0
DA:542,0
DA:543,0
DA:544,0
DA:545,0
DA:546,0
DA:547,0
DA:549,0
DA:552,0
DA:553,0
DA:555,0
DA:556,0
DA:557,0
DA:559,0
DA:560,0
DA:561,0
DA:562,0
DA:564,0
DA:565,0
DA:569,0
DA:573,0
DA:574,0
DA:575,0
DA:576,0
DA:577,0
DA:578,0
DA:579,0
DA:580,0
DA:582,0
DA:585,0
DA:586,0
DA:588,0
DA:589,0
DA:591,0
DA:592,0
DA:594,0
DA:595,0
DA:597,0
DA:599,0
DA:600,0
DA:601,0
DA:602,0
DA:604,0
DA:605,0
DA:606,0
DA:607,0
DA:608,0
DA:609,0
DA:610,0
DA:611,0
DA:613,0
DA:614,0
DA:615,0
DA:616,0
DA:617,0
DA:621,0
DA:624,0
DA:885,0
DA:909,0
DA:910,0
DA:911,0
DA:912,0
DA:913,0
DA:970,0
DA:972,0
LF:137
LH:6
end_of_record
TN:
SF:/Applications/Xcode.app/Contents/Developer/Toolchains/XcodeDefault.xctoolchain/usr/include/c++/v1/stdexcept
FN:136,_ZNSt12length_errorC1EPKc
FN:136,_ZNSt12length_errorC2EPKc
FN:222,_ZNSt3__1L20__throw_length_errorEPKc
FNDA:0,_ZNSt12length_errorC2EPKc
FNDA:0,_ZNSt12length_errorC1EPKc
FNDA:0,_ZNSt3__1L20__throw_length_errorEPKc
FNF:3
FNH:0
DA:136,0
DA:222,0
DA:225,0
DA:230,0
LF:4
LH:0
end_of_record
TN:
SF:/Applications/Xcode.app/Contents/Developer/Toolchains/XcodeDefault.xctoolchain/usr/include/c++/v1/streambuf
FN:142,_ZNSt3__115basic_streambufIcNS_11char_traitsIcEEE8pubimbueERKNS_6localeE
FN:150,_ZNKSt3__115basic_streambufIcNS_11char_traitsIcEEE6getlocEv
FN:187,_ZNSt3__115basic_streambufIcNS_11char_traitsIcEEE6sbumpcEv
FN:221,_ZNSt3__115basic_streambufIcNS_11char_traitsIcEEE5sputcEc
FN:229,_ZNSt3__115basic_streambufIcNS_11char_traitsIcEEE5sputnEPKcl
FN:239,_ZNKSt3__115basic_streambufIcNS_11char_traitsIcEEE5ebackEv
FN:240,_ZNKSt3__115basic_streambufIcNS_11char_traitsIcEEE4gptrEv
FN:241,_ZNKSt3__115basic_streambufIcNS_11char_traitsIcEEE5egptrEv
FN:244,_ZNSt3__115basic_streambufIcNS_11char_traitsIcEEE5gbumpEi
FN:247,_ZNSt3__115basic_streambufIcNS_11char_traitsIcEEE4setgEPcS4_S4_
FN:254,_ZNKSt3__115basic_streambufIcNS_11char_traitsIcEEE5pbaseEv
FN:255,_ZNKSt3__115basic_streambufIcNS_11char_traitsIcEEE4pptrEv
FN:256,_ZNKSt3__115basic_streambufIcNS_11char_traitsIcEEE5epptrEv
FN:259,_ZNSt3__115basic_streambufIcNS_11char_traitsIcEEE5pbumpEi
FN:262,_ZNSt3__115basic_streambufIcNS_11char_traitsIcEEE7__pbumpEl
FN:265,_ZNSt3__115basic_streambufIcNS_11char_traitsIcEEE4setpEPcS4_
FNDA:0,_ZNSt3__115basic_streambufIcNS_11char_traitsIcEEE5pbumpEi
FNDA:0,_ZNSt3__115basic_streambufIcNS_11char_traitsIcEEE8pubimbueERKNS_6localeE
FNDA:396,_ZNSt3__115basic_streambufIcNS_11char_traitsIcEEE4setpEPcS4_
FNDA:0,_ZNSt3__115basic_streambufIcNS_11char_traitsIcEEE5sputnEPKcl
FNDA:3696,_ZNKSt3__115basic_streambufIcNS_11char_traitsIcEEE5ebackEv
FNDA:264,_ZNKSt3__115basic_streambufIcNS_11char_traitsIcEEE6getlocEv
FNDA:1584,_ZNKSt3__115basic_streambufIcNS_11char_traitsIcEEE4gptrEv
FNDA:1461636,_ZNSt3__115basic_streambufIcNS_11char_traitsIcEEE6sbumpcEv
FNDA:0,_ZNSt3__115basic_streambufIcNS_11char_traitsIcEEE7__pbumpEl
FNDA:0,_ZNKSt3__115basic_streambufIcNS_11char_traitsIcEEE5pbaseEv
FNDA:0,_ZNKSt3__115basic_streambufIcNS_11char_traitsIcEEE5epptrEv
FNDA:2112,_ZNKSt3__115basic_streambufIcNS_11char_traitsIcEEE5egptrEv
FNDA:0,_ZNSt3__115basic_streambufIcNS_11char_traitsIcEEE5gbumpEi
FNDA:0,_ZNKSt3__115basic_streambufIcNS_11char_traitsIcEEE4pptrEv
FNDA:0,_ZNSt3__115basic_streambufIcNS_11char_traitsIcEEE5sputcEc
FNDA:924,_ZNSt3__115basic_streambufIcNS_11char_traitsIcEEE4setgEPcS4_S4_
FNF:16
FNH:7
DA:142,0
DA:143,0
DA:144,0
DA:145,0
DA:146,0
DA:147,0
DA:150,264
DA:187,1461636
DA:188,1461636
DA:189,528
DA:190,1461108
DA:191,1461636
DA:221,0
DA:222,0
DA:223,0
DA:224,0
DA:225,0
DA:226,0
DA:229,0
DA:230,0
DA:239,3696
DA:240,1584
DA:241,2112
DA:244,0
DA:247,924
DA:248,924
DA:249,924
DA:250,924
DA:251,924
DA:254,0
DA:255,0
DA:256,0
DA:259,0
DA:262,0
DA:265,396
DA:266,396
DA:267,396
DA:268,396
LF:38
LH:18
end_of_record
TN:
SF:/Applications/Xcode.app/Contents/Developer/Toolchains/XcodeDefault.xctoolchain/usr/include/c++/v1/string
FN:544,_ZNSt3__14fposI11__mbstate_tEC2Ex
FN:544,_ZNSt3__14fposI11__mbstate_tEC1Ex
FN:546,_ZNKSt3__14fposI11__mbstate_tEcvxEv
FN:548,_ZNKSt3__14fposI11__mbstate_tE5stateEv
FN:549,_ZNSt3__14fposI11__mbstate_tE5stateES1_
FN:818,_ZNSt3__112basic_stringIcNS_11char_traitsIcEENS_9allocatorIcEEEC2IDnEEPKc
FN:818,_ZNSt3__112basic_stringIcNS_11char_traitsIcEENS_9allocatorIcEEEC1IDnEEPKc
FN:891,_ZNSt3__112basic_stringIcNS_11char_traitsIcEENS_9allocatorIcEEEaSEPKc
FN:909,_ZNSt3__112basic_stringIcNS_11char_traitsIcEENS_9allocatorIcEEE5beginEv
FN:912,_ZNKSt3__112basic_stringIcNS_11char_traitsIcEENS_9allocatorIcEEE5beginEv
FN:915,_ZNSt3__112basic_stringIcNS_11char_traitsIcEENS_9allocatorIcEEE3endEv
FN:918,_ZNKSt3__112basic_stringIcNS_11char_traitsIcEENS_9allocatorIcEEE3endEv
FN:947,_ZNKSt3__112basic_stringIcNS_11char_traitsIcEENS_9allocatorIcEEE4sizeEv
FN:951,_ZNKSt3__112basic_stringIcNS_11char_traitsIcEENS_9allocatorIcEEE8capacityEv
FN:956,_ZNSt3__112basic_stringIcNS_11char_traitsIcEENS_9allocatorIcEEE6resizeEm
FN:968,_ZNKSt3__112basic_stringIcNS_11char_traitsIcEENS_9allocatorIcEEE5emptyEv
FN:976,_ZNSt3__112basic_stringIcNS_11char_traitsIcEENS_9allocatorIcEEEpLERKS5_
FN:986,_ZNSt3__112basic_stringIcNS_11char_traitsIcEENS_9allocatorIcEEEpLEPKc
FN:1046,_ZNSt3__112basic_stringIcNS_11char_traitsIcEENS_9allocatorIcEEE6appendINS_11__wrap_iterIPKcEEEENS_9enable_ifIXaasr21__is_forward_iteratorIT_EE5valuesr38__libcpp_string_gets_noexcept_iteratorISC_EE5valueERS5_E4typeESC_SC_
FN:1241,_ZNKSt3__112basic_stringIcNS_11char_traitsIcEENS_9allocatorIcEEE5c_strEv
FN:1243,_ZNKSt3__112basic_stringIcNS_11char_traitsIcEENS_9allocatorIcEEE4dataEv
FN:1246,_ZNSt3__112basic_stringIcNS_11char_traitsIcEENS_9allocatorIcEEE4dataEv
FN:1250,_ZNKSt3__112basic_stringIcNS_11char_traitsIcEENS_9allocatorIcEEE13get_allocatorEv
FN:1420,_ZNKSt3__112basic_stringIcNS_11char_traitsIcEENS_9allocatorIcEEE9__is_longEv
FN:1434,_ZNSt3__112basic_stringIcNS_11char_traitsIcEENS_9allocatorIcEEE7__allocEv
FN:1437,_ZNKSt3__112basic_stringIcNS_11char_traitsIcEENS_9allocatorIcEEE7__allocEv
FN:1461,_ZNSt3__112basic_stringIcNS_11char_traitsIcEENS_9allocatorIcEEE16__set_short_sizeEm
FN:1469,_ZNKSt3__112basic_stringIcNS_11char_traitsIcEENS_9allocatorIcEEE16__get_short_sizeEv
FN:1479,_ZNSt3__112basic_stringIcNS_11char_traitsIcEENS_9allocatorIcEEE15__set_long_sizeEm
FN:1482,_ZNKSt3__112basic_stringIcNS_11char_traitsIcEENS_9allocatorIcEEE15__get_long_sizeEv
FN:1485,_ZNSt3__112basic_stringIcNS_11char_traitsIcEENS_9allocatorIcEEE10__set_sizeEm
FN:1489,_ZNSt3__112basic_stringIcNS_11char_traitsIcEENS_9allocatorIcEEE14__set_long_capEm
FN:1492,_ZNKSt3__112basic_stringIcNS_11char_traitsIcEENS_9allocatorIcEEE14__get_long_capEv
FN:1496,_ZNSt3__112basic_stringIcNS_11char_traitsIcEENS_9allocatorIcEEE18__set_long_pointerEPc
FN:1499,_ZNSt3__112basic_stringIcNS_11char_traitsIcEENS_9allocatorIcEEE18__get_long_pointerEv
FN:1502,_ZNKSt3__112basic_stringIcNS_11char_traitsIcEENS_9allocatorIcEEE18__get_long_pointerEv
FN:1505,_ZNSt3__112basic_stringIcNS_11char_traitsIcEENS_9allocatorIcEEE19__get_short_pointerEv
FN:1508,_ZNKSt3__112basic_stringIcNS_11char_traitsIcEENS_9allocatorIcEEE19__get_short_pointerEv
FN:1511,_ZNSt3__112basic_stringIcNS_11char_traitsIcEENS_9allocatorIcEEE13__get_pointerEv
FN:1514,_ZNKSt3__112basic_stringIcNS_11char_traitsIcEENS_9allocatorIcEEE13__get_pointerEv
FN:1518,_ZNSt3__112basic_stringIcNS_11char_traitsIcEENS_9allocatorIcEEE6__zeroEv
FN:1527,_ZNSt3__112basic_stringIcNS_11char_traitsIcEENS_9allocatorIcEEE10__align_itILm16EEEmm
FN:1531,_ZNSt3__112basic_stringIcNS_11char_traitsIcEENS_9allocatorIcEEE11__recommendEm
FN:1623,_ZNSt3__112basic_stringIcNS_11char_traitsIcEENS_9allocatorIcEEE19__move_assign_allocERS5_
FN:1631,_ZNSt3__112basic_stringIcNS_11char_traitsIcEENS_9allocatorIcEEE19__move_assign_allocERS5_NS_17integral_constantIbLb1EEE
FN:1684,_ZNSt3__112basic_stringIcNS_11char_traitsIcEENS_9allocatorIcEEE26__invalidate_all_iteratorsEv
FN:1723,_ZNSt3__112basic_stringIcNS_11char_traitsIcEENS_9allocatorIcEEEC2Ev
FN:1723,_ZNSt3__112basic_stringIcNS_11char_traitsIcEENS_9allocatorIcEEEC1Ev
FN:1734,_ZNSt3__112basic_stringIcNS_11char_traitsIcEENS_9allocatorIcEEEC1ERKS4_
FN:1734,_ZNSt3__112basic_stringIcNS_11char_traitsIcEENS_9allocatorIcEEEC2ERKS4_
FN:1863,_ZNSt3__112basic_stringIcNS_11char_traitsIcEENS_9allocatorIcEEEC1EOS5_
FN:1863,_ZNSt3__112basic_stringIcNS_11char_traitsIcEENS_9allocatorIcEEEC2EOS5_
FN:1926,_ZNSt3__112basic_stringIcNS_11char_traitsIcEENS_9allocatorIcEEEC2Emc
FN:1926,_ZNSt3__112basic_stringIcNS_11char_traitsIcEENS_9allocatorIcEEEC1Emc
FN:2046,_ZNSt3__112basic_stringIcNS_11char_traitsIcEENS_9allocatorIcEEE6__initIPcEENS_9enable_ifIXsr21__is_forward_iteratorIT_EE5valueEvE4typeES9_S9_
FN:2046,_ZNSt3__112basic_stringIcNS_11char_traitsIcEENS_9allocatorIcEEE6__initINS_11__wrap_iterIPcEEEENS_9enable_ifIXsr21__is_forward_iteratorIT_EE5valueEvE4typeESB_SB_
FN:2046,_ZNSt3__112basic_stringIcNS_11char_traitsIcEENS_9allocatorIcEEE6__initINS_11__wrap_iterIPKcEEEENS_9enable_ifIXsr21__is_forward_iteratorIT_EE5valueEvE4typeESC_SC_
FN:2073,_ZNSt3__112basic_stringIcNS_11char_traitsIcEENS_9allocatorIcEEEC2INS_11__wrap_iterIPcEEEET_SA_
FN:2073,_ZNSt3__112basic_stringIcNS_11char_traitsIcEENS_9allocatorIcEEEC1INS_11__wrap_iterIPcEEEET_SA_
FN:2084,_ZNSt3__112basic_stringIcNS_11char_traitsIcEENS_9allocatorIcEEEC2INS_11__wrap_iterIPKcEEEET_SB_RKS4_
FN:2084,_ZNSt3__112basic_stringIcNS_11char_traitsIcEENS_9allocatorIcEEEC1INS_11__wrap_iterIPKcEEEET_SB_RKS4_
FN:2084,_ZNSt3__112basic_stringIcNS_11char_traitsIcEENS_9allocatorIcEEEC1IPcEET_S8_RKS4_
FN:2084,_ZNSt3__112basic_stringIcNS_11char_traitsIcEENS_9allocatorIcEEEC2IPcEET_S8_RKS4_
FN:2286,_ZNSt3__112basic_stringIcNS_11char_traitsIcEENS_9allocatorIcEEE13__move_assignERS5_NS_17integral_constantIbLb1EEE
FN:2302,_ZNSt3__112basic_stringIcNS_11char_traitsIcEENS_9allocatorIcEEEaSEOS5_
FN:2488,_ZNSt3__114__ptr_in_rangeIcEEbPKT_S3_S3_
FN:2502,_ZNSt3__112basic_stringIcNS_11char_traitsIcEENS_9allocatorIcEEE23__append_forward_unsafeINS_11__wrap_iterIPKcEEEERS5_T_SC_
FN:2536,_ZNSt3__112basic_stringIcNS_11char_traitsIcEENS_9allocatorIcEEE6appendERKS5_
FN:3022,_ZNSt3__112basic_stringIcNS_11char_traitsIcEENS_9allocatorIcEEE5eraseENS_11__wrap_iterIPKcEES9_
FN:3061,_ZNSt3__112basic_stringIcNS_11char_traitsIcEENS_9allocatorIcEEE5clearEv
FN:3119,_ZNKSt3__112basic_stringIcNS_11char_traitsIcEENS_9allocatorIcEEE8max_sizeEv
FN:3195,_ZNKSt3__112basic_stringIcNS_11char_traitsIcEENS_9allocatorIcEEEixEm
FN:3204,_ZNSt3__112basic_stringIcNS_11char_traitsIcEENS_9allocatorIcEEEixEm
FN:3279,_ZNKSt3__112basic_stringIcNS_11char_traitsIcEENS_9allocatorIcEEE6substrEmm
FN:3819,_ZNSt3__112basic_stringIcNS_11char_traitsIcEENS_9allocatorIcEEE18__clear_and_shrinkEv
FN:3879,_ZNSt3__1eqIcNS_11char_traitsIcEENS_9allocatorIcEEEEbRKNS_12basic_stringIT_T0_T1_EEPKS6_
FN:3910,_ZNSt3__1neIcNS_11char_traitsIcEENS_9allocatorIcEEEEbRKNS_12basic_stringIT_T0_T1_EEPKS6_
FNDA:0,_ZNSt3__112basic_stringIcNS_11char_traitsIcEENS_9allocatorIcEEE10__set_sizeEm
FNDA:132,_ZNKSt3__112basic_stringIcNS_11char_traitsIcEENS_9allocatorIcEEE5c_strEv
FNDA:167376,_ZNSt3__112basic_stringIcNS_11char_traitsIcEENS_9allocatorIcEEE16__set_short_sizeEm
FNDA:35904,_ZNSt3__1neIcNS_11char_traitsIcEENS_9allocatorIcEEEEbRKNS_12basic_stringIT_T0_T1_EEPKS6_
FNDA:5844,_ZNSt3__112basic_stringIcNS_11char_traitsIcEENS_9allocatorIcEEEC1Ev
FNDA:0,_ZNSt3__112basic_stringIcNS_11char_traitsIcEENS_9allocatorIcEEEpLEPKc
FNDA:236544,_ZNSt3__112basic_stringIcNS_11char_traitsIcEENS_9allocatorIcEEE3endEv
FNDA:117348,_ZNSt3__112basic_stringIcNS_11char_traitsIcEENS_9allocatorIcEEE18__get_long_pointerEv
FNDA:478668,_ZNSt3__112basic_stringIcNS_11char_traitsIcEENS_9allocatorIcEEE6__zeroEv
FNDA:0,_ZNSt3__112basic_stringIcNS_11char_traitsIcEENS_9allocatorIcEEEpLERKS5_
FNDA:36168,_ZNSt3__112basic_stringIcNS_11char_traitsIcEENS_9allocatorIcEEE5clearEv
FNDA:5844,_ZNSt3__112basic_stringIcNS_11char_traitsIcEENS_9allocatorIcEEEC2Ev
FNDA:371712,_ZNSt3__112basic_stringIcNS_11char_traitsIcEENS_9allocatorIcEEE5beginEv
FNDA:0,_ZNKSt3__112basic_stringIcNS_11char_traitsIcEENS_9allocatorIcEEE6substrEmm
FNDA:0,_ZNSt3__112basic_stringIcNS_11char_traitsIcEENS_9allocatorIcEEE19__move_assign_allocERS5_NS_17integral_constantIbLb1EEE
FNDA:0,_ZNKSt3__112basic_stringIcNS_11char_traitsIcEENS_9allocatorIcEEE5emptyEv
FNDA:2342472,_ZNKSt3__112basic_stringIcNS_11char_traitsIcEENS_9allocatorIcEEE9__is_longEv
FNDA:694320,_ZNSt3__112basic_stringIcNS_11char_traitsIcEENS_9allocatorIcEEE19__get_short_pointerEv
FNDA:472824,_ZNSt3__112basic_stringIcNS_11char_traitsIcEENS_9allocatorIcEEEC1EOS5_
FNDA:0,_ZNSt3__112basic_stringIcNS_11char_traitsIcEENS_9allocatorIcEEE19__move_assign_allocERS5_
FNDA:0,_ZNSt3__112basic_stringIcNS_11char_traitsIcEENS_9allocatorIcEEEC1INS_11__wrap_iterIPKcEEEET_SB_RKS4_
FNDA:0,_ZNSt3__112basic_stringIcNS_11char_traitsIcEENS_9allocatorIcEEEaSEPKc
FNDA:0,_ZNKSt3__14fposI11__mbstate_tE5stateEv
FNDA:472824,_ZNSt3__112basic_stringIcNS_11char_traitsIcEENS_9allocatorIcEEEC2EOS5_
FNDA:0,_ZNSt3__112basic_stringIcNS_11char_traitsIcEENS_9allocatorIcEEE6appendERKS5_
FNDA:135168,_ZNSt3__112basic_stringIcNS_11char_traitsIcEENS_9allocatorIcEEE5eraseENS_11__wrap_iterIPKcEES9_
FNDA:0,_ZNSt3__112basic_stringIcNS_11char_traitsIcEENS_9allocatorIcEEE6__initIPcEENS_9enable_ifIXsr21__is_forward_iteratorIT_EE5valueEvE4typeES9_S9_
FNDA:1697916,_ZNKSt3__112basic_stringIcNS_11char_traitsIcEENS_9allocatorIcEEE4sizeEv
FNDA:132,_ZNKSt3__112basic_stringIcNS_11char_traitsIcEENS_9allocatorIcEEE4dataEv
FNDA:0,_ZNKSt3__112basic_stringIcNS_11char_traitsIcEENS_9allocatorIcEEEixEm
FNDA:0,_ZNSt3__112basic_stringIcNS_11char_traitsIcEENS_9allocatorIcEEEC2Emc
FNDA:1716,_ZNSt3__112basic_stringIcNS_11char_traitsIcEENS_9allocatorIcEEE10__align_itILm16EEEmm
FNDA:0,_ZNSt3__112basic_stringIcNS_11char_traitsIcEENS_9allocatorIcEEEC2INS_11__wrap_iterIPKcEEEET_SB_RKS4_
FNDA:0,_ZNKSt3__112basic_stringIcNS_11char_traitsIcEENS_9allocatorIcEEE8capacityEv
FNDA:0,_ZNSt3__112basic_stringIcNS_11char_traitsIcEENS_9allocatorIcEEE13__move_assignERS5_NS_17integral_constantIbLb1EEE
FNDA:0,_ZNSt3__112basic_stringIcNS_11char_traitsIcEENS_9allocatorIcEEE6resizeEm
FNDA:1594428,_ZNKSt3__112basic_stringIcNS_11char_traitsIcEENS_9allocatorIcEEE7__allocEv
FNDA:36168,_ZNSt3__112basic_stringIcNS_11char_traitsIcEENS_9allocatorIcEEE26__invalidate_all_iteratorsEv
FNDA:0,_ZNSt3__112basic_stringIcNS_11char_traitsIcEENS_9allocatorIcEEEC1Emc
FNDA:0,_ZNSt3__112basic_stringIcNS_11char_traitsIcEENS_9allocatorIcEEEaSEOS5_
FNDA:132,_ZNKSt3__112basic_stringIcNS_11char_traitsIcEENS_9allocatorIcEEE19__get_short_pointerEv
FNDA:0,_ZNSt3__14fposI11__mbstate_tE5stateES1_
FNDA:0,_ZNSt3__112basic_stringIcNS_11char_traitsIcEENS_9allocatorIcEEEC1IPcEET_S8_RKS4_
FNDA:0,_ZNSt3__112basic_stringIcNS_11char_traitsIcEENS_9allocatorIcEEEC1ERKS4_
FNDA:0,_ZNSt3__114__ptr_in_rangeIcEEbPKT_S3_S3_
FNDA:1594428,_ZNKSt3__112basic_stringIcNS_11char_traitsIcEENS_9allocatorIcEEE8max_sizeEv
FNDA:807,_ZNSt3__112basic_stringIcNS_11char_traitsIcEENS_9allocatorIcEEEC2IDnEEPKc
FNDA:1716,_ZNSt3__112basic_stringIcNS_11char_traitsIcEENS_9allocatorIcEEE11__recommendEm
FNDA:168960,_ZNSt3__112basic_stringIcNS_11char_traitsIcEENS_9allocatorIcEEEC2INS_11__wrap_iterIPcEEEET_SA_
FNDA:200508,_ZNKSt3__112basic_stringIcNS_11char_traitsIcEENS_9allocatorIcEEE16__get_short_sizeEv
FNDA:0,_ZNSt3__112basic_stringIcNS_11char_traitsIcEENS_9allocatorIcEEE6appendINS_11__wrap_iterIPKcEEEENS_9enable_ifIXaasr21__is_forward_iteratorIT_EE5valuesr38__libcpp_string_gets_noexcept_iteratorISC_EE5valueERS5_E4typeESC_SC_
FNDA:1497408,_ZNKSt3__112basic_stringIcNS_11char_traitsIcEENS_9allocatorIcEEE15__get_long_sizeEv
FNDA:0,_ZNSt3__112basic_stringIcNS_11char_traitsIcEENS_9allocatorIcEEE6__initINS_11__wrap_iterIPKcEEEENS_9enable_ifIXsr21__is_forward_iteratorIT_EE5valueEvE4typeESC_SC_
FNDA:0,_ZNSt3__14fposI11__mbstate_tEC1Ex
FNDA:0,_ZNKSt3__112basic_stringIcNS_11char_traitsIcEENS_9allocatorIcEEE3endEv
FNDA:0,_ZNKSt3__14fposI11__mbstate_tEcvxEv
FNDA:35904,_ZNSt3__1eqIcNS_11char_traitsIcEENS_9allocatorIcEEEEbRKNS_12basic_stringIT_T0_T1_EEPKS6_
FNDA:0,_ZNSt3__112basic_stringIcNS_11char_traitsIcEENS_9allocatorIcEEE23__append_forward_unsafeINS_11__wrap_iterIPKcEEEERS5_T_SC_
FNDA:807,_ZNSt3__112basic_stringIcNS_11char_traitsIcEENS_9allocatorIcEEEC1IDnEEPKc
FNDA:0,_ZNKSt3__112basic_stringIcNS_11char_traitsIcEENS_9allocatorIcEEE18__get_long_pointerEv
FNDA:1716,_ZNSt3__112basic_stringIcNS_11char_traitsIcEENS_9allocatorIcEEE7__allocEv
FNDA:0,_ZNSt3__112basic_stringIcNS_11char_traitsIcEENS_9allocatorIcEEEC2IPcEET_S8_RKS4_
FNDA:1716,_ZNSt3__112basic_stringIcNS_11char_traitsIcEENS_9allocatorIcEEE14__set_long_capEm
FNDA:0,_ZNSt3__112basic_stringIcNS_11char_traitsIcEENS_9allocatorIcEEE4dataEv
FNDA:37752,_ZNSt3__112basic_stringIcNS_11char_traitsIcEENS_9allocatorIcEEE15__set_long_sizeEm
FNDA:0,_ZNKSt3__112basic_stringIcNS_11char_traitsIcEENS_9allocatorIcEEE14__get_long_capEv
FNDA:0,_ZNSt3__14fposI11__mbstate_tEC2Ex
FNDA:0,_ZNSt3__112basic_stringIcNS_11char_traitsIcEENS_9allocatorIcEEEixEm
FNDA:608256,_ZNSt3__112basic_stringIcNS_11char_traitsIcEENS_9allocatorIcEEE13__get_pointerEv
FNDA:168960,_ZNSt3__112basic_stringIcNS_11char_traitsIcEENS_9allocatorIcEEE6__initINS_11__wrap_iterIPcEEEENS_9enable_ifIXsr21__is_forward_iteratorIT_EE5valueEvE4typeESB_SB_
FNDA:168960,_ZNSt3__112basic_stringIcNS_11char_traitsIcEENS_9allocatorIcEEEC1INS_11__wrap_iterIPcEEEET_SA_
FNDA:0,_ZNKSt3__112basic_stringIcNS_11char_traitsIcEENS_9allocatorIcEEE13get_allocatorEv
FNDA:1716,_ZNSt3__112basic_stringIcNS_11char_traitsIcEENS_9allocatorIcEEE18__set_long_pointerEPc
FNDA:0,_ZNSt3__112basic_stringIcNS_11char_traitsIcEENS_9allocatorIcEEEC2ERKS4_
FNDA:0,_ZNKSt3__112basic_stringIcNS_11char_traitsIcEENS_9allocatorIcEEE5beginEv
FNDA:132,_ZNKSt3__112basic_stringIcNS_11char_traitsIcEENS_9allocatorIcEEE13__get_pointerEv
FNDA:0,_ZNSt3__112basic_stringIcNS_11char_traitsIcEENS_9allocatorIcEEE18__clear_and_shrinkEv
FNF:77
FNH:37
DA:544,0
DA:546,0
DA:548,0
DA:549,0
DA:790,5844
DA:818,1614
DA:820,807
DA:824,1614
DA:835,0
DA:862,168960
DA:891,0
DA:909,371712
DA:910,371712
DA:912,0
DA:913,0
DA:915,236544
DA:916,236544
DA:918,0
DA:919,0
DA:947,1697916
DA:948,1697916
DA:951,0
DA:952,0
DA:953,0
DA:956,0
DA:968,0
DA:976,0
DA:986,0
DA:1046,0
DA:1047,0
DA:1241,132
DA:1243,132
DA:1246,0
DA:1250,0
DA:1420,2342472
DA:1421,2342472
DA:1434,1716
DA:1435,1716
DA:1437,1594428
DA:1438,1594428
DA:1461,167376
DA:1465,167376
DA:1469,200508
DA:1473,200508
DA:1479,37752
DA:1480,37752
DA:1482,1497408
DA:1483,1497408
DA:1485,0
DA:1486,0
DA:1489,1716
DA:1490,1716
DA:1492,0
DA:1493,0
DA:1496,1716
DA:1497,1716
DA:1499,117348
DA:1500,117348
DA:1502,0
DA:1503,0
DA:1505,694320
DA:1506,694320
DA:1508,132
DA:1509,132
DA:1511,608256
DA:1512,608256
DA:1514,132
DA:1515,132
DA:1518,478668
DA:1520,478668
DA:1521,1914672
DA:1522,1436004
DA:1523,478668
DA:1527,1716
DA:1528,1716
DA:1531,1716
DA:1533,1716
DA:1534,3432
DA:1535,3432
DA:1536,1716
DA:1537,1716
DA:1538,1716
DA:1623,0
DA:1627,0
DA:1628,0
DA:1631,0
DA:1634,0
DA:1635,0
DA:1684,36168
DA:1689,36168
DA:1723,11688
DA:1725,11688
DA:1729,5844
DA:1730,11688
DA:1734,0
DA:1740,0
DA:1741,0
DA:1745,0
DA:1746,0
DA:1863,945648
DA:1869,472824
DA:1870,945648
DA:1871,472824
DA:1877,945648
DA:1926,0
DA:1927,0
DA:1928,0
DA:1932,0
DA:2046,168960
DA:2048,168960
DA:2049,168960
DA:2050,0
DA:2052,168960
DA:2054,167244
DA:2055,167244
DA:2056,167244
DA:2059,1716
DA:2060,1716
DA:2061,1716
DA:2062,1716
DA:2063,1716
DA:2065,1453188
DA:2066,1284228
DA:2067,168960
DA:2068,168960
DA:2073,337920
DA:2074,337920
DA:2075,168960
DA:2079,337920
DA:2084,0
DA:2086,0
DA:2087,0
DA:2088,0
DA:2092,0
DA:2286,0
DA:2293,0
DA:2294,0
DA:2295,0
DA:2296,0
DA:2297,0
DA:2302,0
DA:2305,0
DA:2307,0
DA:2488,0
DA:2490,0
DA:2502,0
DA:2507,0
DA:2508,0
DA:2509,0
DA:2510,0
DA:2513,0
DA:2514,0
DA:2516,0
DA:2517,0
DA:2518,0
DA:2521,0
DA:2522,0
DA:2523,0
DA:2524,0
DA:2525,0
DA:2526,0
DA:2527,0
DA:2529,0
DA:2530,0
DA:2531,0
DA:2536,0
DA:2538,0
DA:3022,135168
DA:3030,135168
DA:3031,135168
DA:3032,135168
DA:3033,135168
DA:3061,36168
DA:3063,36168
DA:3064,36168
DA:3066,36036
DA:3067,36036
DA:3068,36036
DA:3071,132
DA:3072,132
DA:3074,36168
DA:3119,1594428
DA:3121,1594428
DA:3125,1594428
DA:3195,0
DA:3198,0
DA:3204,0
DA:3207,0
DA:3279,0
DA:3281,0
DA:3819,0
DA:3821,0
DA:3822,0
DA:3824,0
DA:3825,0
DA:3826,0
DA:3827,0
DA:3828,0
DA:3879,35904
DA:3884,35904
DA:3885,35904
DA:3886,2112
DA:3887,35904
DA:3910,35904
DA:3913,35904
LF:205
LH:110
end_of_record
TN:
SF:/Applications/Xcode.app/Contents/Developer/Toolchains/XcodeDefault.xctoolchain/usr/include/c++/v1/system_error
FN:207,_ZNSt3__114error_categoryC2Ev
FN:221,_ZNKSt3__114error_categoryeqERKS0_
FN:251,_ZNSt3__115error_conditionC2EiRKNS_14error_categoryE
FN:251,_ZNSt3__115error_conditionC1EiRKNS_14error_categoryE
FN:286,_ZNKSt3__115error_condition5valueEv
FN:289,_ZNKSt3__115error_condition8categoryEv
FN:358,_ZNKSt3__110error_code5valueEv
FN:361,_ZNKSt3__110error_code8categoryEv
FN:413,_ZNSt3__1eqERKNS_15error_conditionES2_
FNDA:0,_ZNKSt3__115error_condition5valueEv
FNDA:0,_ZNSt3__114error_categoryC2Ev
FNDA:0,_ZNSt3__1eqERKNS_15error_conditionES2_
FNDA:0,_ZNKSt3__115error_condition8categoryEv
FNDA:0,_ZNSt3__115error_conditionC1EiRKNS_14error_categoryE
FNDA:0,_ZNKSt3__110error_code5valueEv
FNDA:0,_ZNKSt3__114error_categoryeqERKS0_
FNDA:0,_ZNSt3__115error_conditionC2EiRKNS_14error_categoryE
FNDA:0,_ZNKSt3__110error_code8categoryEv
FNF:9
FNH:0
DA:207,0
DA:221,0
DA:251,0
DA:252,0
DA:286,0
DA:289,0
DA:358,0
DA:361,0
DA:413,0
DA:415,0
LF:10
LH:0
end_of_record
TN:
SF:/Applications/Xcode.app/Contents/Developer/Toolchains/XcodeDefault.xctoolchain/usr/include/c++/v1/type_traits
FN:454,_ZNSt3__1L9addressofINS_15__tree_end_nodeIPNS_16__tree_node_baseIPvEEEEEEPT_RS7_
FN:454,_ZNSt3__1L9addressofIKcEEPT_RS2_
FN:454,_ZNSt3__1L9addressofINS_4pairIKPKN5boost6system14error_categoryENS_10unique_ptrINS3_6detail12std_categoryENS_14default_deleteISA_EEEEEEEEPT_RSF_
FN:454,_ZNSt3__1L9addressofIKNS_4pairIKPKN5boost6system14error_categoryENS_10unique_ptrINS3_6detail12std_categoryENS_14default_deleteISA_EEEEEEEEPT_RSG_
FN:454,_ZNSt3__1L9addressofIPNS_16__tree_node_baseIPvEEEEPT_RS5_
FN:454,_ZNSt3__1L9addressofINS_12__value_typeIPKN5boost6system14error_categoryENS_10unique_ptrINS3_6detail12std_categoryENS_14default_deleteIS9_EEEEEEEEPT_RSE_
FN:454,_ZNSt3__1L9addressofIcEEPT_RS1_
FN:2310,_ZNSt3__1L4moveIRNS_17__compressed_pairINS_12basic_stringIcNS_11char_traitsIcEENS_9allocatorIcEEE5__repES6_EEEEONS_16remove_referenceIT_E4typeEOSC_
FN:2310,_ZNSt3__1L4moveIRNS_9allocatorI6OpcodeEEEEONS_16remove_referenceIT_E4typeEOS6_
FN:2310,_ZNSt3__1L4moveIR6OpcodeEEONS_16remove_referenceIT_E4typeEOS4_
FN:2310,_ZNSt3__1L4moveIRhEEONS_16remove_referenceIT_E4typeEOS3_
FN:2310,_ZNSt3__1L4moveIRNS_9allocatorINS_12basic_stringIcNS_11char_traitsIcEENS1_IcEEEEEEEEONS_16remove_referenceIT_E4typeEOSA_
FN:2310,_ZNSt3__1L4moveIRNS_10unique_ptrIN5boost6system6detail12std_categoryENS_14default_deleteIS5_EEEEEEONS_16remove_referenceIT_E4typeEOSB_
FN:2310,_ZNSt3__1L4moveIRPhEEONS_16remove_referenceIT_E4typeEOS4_
FN:2310,_ZNSt3__1L4moveIRPmEEONS_16remove_referenceIT_E4typeEOS4_
FN:2310,_ZNSt3__1L4moveIRNS_12basic_stringIcNS_11char_traitsIcEENS_9allocatorIcEEEEEEONS_16remove_referenceIT_E4typeEOS9_
FN:2310,_ZNSt3__1L4moveIRPFiP7__sFILEEEEONS_16remove_referenceIT_E4typeEOS7_
FN:2310,_ZNSt3__1L4moveIRPN5boost2io6detail11format_itemIcNS_11char_traitsIcEENS_9allocatorIcEEEEEEONS_16remove_referenceIT_E4typeEOSD_
FN:2310,_ZNSt3__1L4moveIRNS_9allocatorIhEEEEONS_16remove_referenceIT_E4typeEOS5_
FN:2310,_ZNSt3__1L4moveIRPNS_12basic_stringIcNS_11char_traitsIcEENS_9allocatorIcEEEEEEONS_16remove_referenceIT_E4typeEOSA_
FN:2310,_ZNSt3__1L4moveIRNS_4pairIKPKN5boost6system14error_categoryENS_10unique_ptrINS3_6detail12std_categoryENS_14default_deleteISA_EEEEEEEEONS_16remove_referenceIT_E4typeEOSH_
FN:2310,_ZNSt3__1L4moveIRmEEONS_16remove_referenceIT_E4typeEOS3_
FN:2310,_ZNSt3__1L4moveIRNS_22__tree_node_destructorINS_9allocatorINS_11__tree_nodeINS_12__value_typeIPKN5boost6system14error_categoryENS_10unique_ptrINS6_6detail12std_categoryENS_14default_deleteISC_EEEEEEPvEEEEEEEEONS_16remove_referenceIT_E4typeEOSN_
FN:2310,_ZNSt3__1L4moveIRNS_9allocatorIcEEEEONS_16remove_referenceIT_E4typeEOS5_
FN:2310,_ZNSt3__1L4moveIRP6OpcodeEEONS_16remove_referenceIT_E4typeEOS5_
FN:2310,_ZNSt3__1L4moveIRN5boost2io6detail11format_itemIcNS_11char_traitsIcEENS_9allocatorIcEEEEEEONS_16remove_referenceIT_E4typeEOSC_
FN:2319,_ZNSt3__1L7forwardINS_10unique_ptrIN5boost6system6detail12std_categoryENS_14default_deleteIS5_EEEEEEOT_RNS_16remove_referenceIS9_E4typeE
FN:2319,_ZNSt3__1L7forwardIRK6OpcodeEEOT_RNS_16remove_referenceIS4_E4typeE
FN:2319,_ZNSt3__1L7forwardINS_14default_deleteIN5boost6system6detail12std_categoryEEEEEOT_RNS_16remove_referenceIS7_E4typeE
FN:2319,_ZNSt3__1L7forwardIRPN5boost6system6detail12std_categoryEEEOT_RNS_16remove_referenceIS7_E4typeE
FN:2319,_ZNSt3__1L7forwardINS_9allocatorIhEEEEOT_RNS_16remove_referenceIS3_E4typeE
FN:2319,_ZNSt3__1L7forwardINS_22__tree_node_destructorINS_9allocatorINS_11__tree_nodeINS_12__value_typeIPKN5boost6system14error_categoryENS_10unique_ptrINS6_6detail12std_categoryENS_14default_deleteISC_EEEEEEPvEEEEEEEEOT_RNS_16remove_referenceISL_E4typeE
FN:2319,_ZNSt3__1L7forwardIRKNS_19__map_value_compareIPKN5boost6system14error_categoryENS_12__value_typeIS6_NS_10unique_ptrINS3_6detail12std_categoryENS_14default_deleteISA_EEEEEENS9_12cat_ptr_lessELb1EEEEEOT_RNS_16remove_referenceISJ_E4typeE
FN:2319,_ZNSt3__1L7forwardINS_9allocatorINS_12basic_stringIcNS_11char_traitsIcEENS1_IcEEEEEEEEOT_RNS_16remove_referenceIS8_E4typeE
FN:2319,_ZNSt3__1L7forwardINS_15__tree_iteratorINS_12__value_typeIPKN5boost6system14error_categoryENS_10unique_ptrINS4_6detail12std_categoryENS_14default_deleteISA_EEEEEEPNS_11__tree_nodeISE_PvEElEEEEOT_RNS_16remove_referenceISK_E4typeE
FN:2319,_ZNSt3__1L7forwardIbEEOT_RNS_16remove_referenceIS1_E4typeE
FN:2319,_ZNSt3__1L7forwardI6OpcodeEEOT_RNS_16remove_referenceIS2_E4typeE
FN:2319,_ZNSt3__1L7forwardIiEEOT_RNS_16remove_referenceIS1_E4typeE
FN:2319,_ZNSt3__1L7forwardIPN5boost6system6detail12std_categoryEEEOT_RNS_16remove_referenceIS6_E4typeE
FN:2319,_ZNSt3__1L7forwardIN5boost2io6detail11format_itemIcNS_11char_traitsIcEENS_9allocatorIcEEEEEEOT_RNS_16remove_referenceISA_E4typeE
FN:2319,_ZNSt3__1L7forwardINS_9allocatorImEEEEOT_RNS_16remove_referenceIS3_E4typeE
FN:2319,_ZNSt3__1L7forwardIRNS_9allocatorINS_12basic_stringIcNS_11char_traitsIcEENS1_IcEEEEEEEEOT_RNS_16remove_referenceIS9_E4typeE
FN:2319,_ZNSt3__1L7forwardIDnEEOT_RNS_16remove_referenceIS1_E4typeE
FN:2319,_ZNSt3__1L7forwardINS_14default_deleteI3CPUEEEEOT_RNS_16remove_referenceIS4_E4typeE
FN:2319,_ZNSt3__1L7forwardIRNS_12basic_stringIcNS_11char_traitsIcEENS_9allocatorIcEEEEEEOT_RNS_16remove_referenceIS8_E4typeE
FN:2319,_ZNSt3__1L7forwardIRKhEEOT_RNS_16remove_referenceIS3_E4typeE
FN:2319,_ZNSt3__1L7forwardINS_12basic_stringIcNS_11char_traitsIcEENS_9allocatorIcEEEEEEOT_RNS_16remove_referenceIS7_E4typeE
FN:2319,_ZNSt3__1L7forwardIRKN5boost2io6detail11format_itemIcNS_11char_traitsIcEENS_9allocatorIcEEEEEEOT_RNS_16remove_referenceISC_E4typeE
FN:2319,_ZNSt3__1L7forwardINS_4pairIKPKN5boost6system14error_categoryENS_10unique_ptrINS3_6detail12std_categoryENS_14default_deleteISA_EEEEEEEEOT_RNS_16remove_referenceISF_E4typeE
FN:2319,_ZNSt3__1L7forwardIRP7__sFILEEEOT_RNS_16remove_referenceIS4_E4typeE
FN:2319,_ZNSt3__1L7forwardIRP3RAMEEOT_RNS_16remove_referenceIS4_E4typeE
FN:2319,_ZNSt3__1L7forwardIRP8EmulatorEEOT_RNS_16remove_referenceIS4_E4typeE
FN:2319,_ZNSt3__1L7forwardIRNS_9allocatorI6OpcodeEEEEOT_RNS_16remove_referenceIS5_E4typeE
FN:2319,_ZNSt3__1L7forwardIPKN5boost6system14error_categoryEEEOT_RNS_16remove_referenceIS6_E4typeE
FN:2319,_ZNSt3__1L7forwardINS_14default_deleteI8EmulatorEEEEOT_RNS_16remove_referenceIS4_E4typeE
FN:2319,_ZNSt3__1L7forwardIRbEEOT_RNS_16remove_referenceIS2_E4typeE
FN:2319,_ZNSt3__1L7forwardIRNS_9allocatorIN5boost2io6detail11format_itemIcNS_11char_traitsIcEENS1_IcEEEEEEEEOT_RNS_16remove_referenceISC_E4typeE
FN:2319,_ZNSt3__1L7forwardIRKNS_9allocatorIcEEEEOT_RNS_16remove_referenceIS5_E4typeE
FN:2319,_ZNSt3__1L7forwardIRP3CPUEEOT_RNS_16remove_referenceIS4_E4typeE
FN:2319,_ZNSt3__1L7forwardIPFiP7__sFILEEEEOT_RNS_16remove_referenceIS5_E4typeE
FN:2319,_ZNSt3__1L7forwardIRNS_9allocatorIhEEEEOT_RNS_16remove_referenceIS4_E4typeE
FN:2319,_ZNSt3__1L7forwardIhEEOT_RNS_16remove_referenceIS1_E4typeE
FN:2319,_ZNSt3__1L7forwardIRPNS_11__tree_nodeINS_12__value_typeIPKN5boost6system14error_categoryENS_10unique_ptrINS4_6detail12std_categoryENS_14default_deleteISA_EEEEEEPvEEEEOT_RNS_16remove_referenceISJ_E4typeE
FN:2319,_ZNSt3__1L7forwardIRKNS_12basic_stringIcNS_11char_traitsIcEENS_9allocatorIcEEEEEEOT_RNS_16remove_referenceIS9_E4typeE
FN:4523,_ZNSt3__1L4swapImEENS_9enable_ifIXaasr21is_move_constructibleIT_EE5valuesr18is_move_assignableIS2_EE5valueEvE4typeERS2_S5_
FN:4523,_ZNSt3__1L4swapIPNS_12basic_stringIcNS_11char_traitsIcEENS_9allocatorIcEEEEEENS_9enable_ifIXaasr21is_move_constructibleIT_EE5valuesr18is_move_assignableIS9_EE5valueEvE4typeERS9_SC_
FN:4523,_ZNSt3__1L4swapIPhEENS_9enable_ifIXaasr21is_move_constructibleIT_EE5valuesr18is_move_assignableIS3_EE5valueEvE4typeERS3_S6_
FN:4523,_ZNSt3__1L4swapIP6OpcodeEENS_9enable_ifIXaasr21is_move_constructibleIT_EE5valuesr18is_move_assignableIS4_EE5valueEvE4typeERS4_S7_
FN:4523,_ZNSt3__1L4swapIPN5boost2io6detail11format_itemIcNS_11char_traitsIcEENS_9allocatorIcEEEEEENS_9enable_ifIXaasr21is_move_constructibleIT_EE5valuesr18is_move_assignableISC_EE5valueEvE4typeERSC_SF_
FN:4523,_ZNSt3__1L4swapIPmEENS_9enable_ifIXaasr21is_move_constructibleIT_EE5valuesr18is_move_assignableIS3_EE5valueEvE4typeERS3_S6_
FN:4705,_ZNSt3__1L21__convert_to_integralEm
FNDA:0,_ZNSt3__1L9addressofINS_4pairIKPKN5boost6system14error_categoryENS_10unique_ptrINS3_6detail12std_categoryENS_14default_deleteISA_EEEEEEEEPT_RSF_
FNDA:112,_ZNSt3__1L4moveIRNS_9allocatorIhEEEEONS_16remove_referenceIT_E4typeEOS5_
FNDA:0,_ZNSt3__1L7forwardIRNS_12basic_stringIcNS_11char_traitsIcEENS_9allocatorIcEEEEEEOT_RNS_16remove_referenceIS8_E4typeE
FNDA:409014,_ZNSt3__1L7forwardIDnEEOT_RNS_16remove_referenceIS1_E4typeE
FNDA:3,_ZNSt3__1L7forwardINS_14default_deleteI3CPUEEEEOT_RNS_16remove_referenceIS4_E4typeE
FNDA:0,_ZNSt3__1L4moveIRmEEONS_16remove_referenceIT_E4typeEOS3_
FNDA:0,_ZNSt3__1L4moveIRNS_22__tree_node_destructorINS_9allocatorINS_11__tree_nodeINS_12__value_typeIPKN5boost6system14error_categoryENS_10unique_ptrINS6_6detail12std_categoryENS_14default_deleteISC_EEEEEEPvEEEEEEEEONS_16remove_referenceIT_E4typeEOSN_
FNDA:0,_ZNSt3__1L9addressofIKNS_4pairIKPKN5boost6system14error_categoryENS_10unique_ptrINS3_6detail12std_categoryENS_14default_deleteISA_EEEEEEEEPT_RSG_
FNDA:1689600,_ZNSt3__1L7forwardINS_12basic_stringIcNS_11char_traitsIcEENS_9allocatorIcEEEEEEOT_RNS_16remove_referenceIS7_E4typeE
FNDA:26542080,_ZNSt3__1L7forwardIRKhEEOT_RNS_16remove_referenceIS3_E4typeE
FNDA:0,_ZNSt3__1L4moveIRNS_4pairIKPKN5boost6system14error_categoryENS_10unique_ptrINS3_6detail12std_categoryENS_14default_deleteISA_EEEEEEEEONS_16remove_referenceIT_E4typeEOSH_
FNDA:0,_ZNSt3__1L4swapImEENS_9enable_ifIXaasr21is_move_constructibleIT_EE5valuesr18is_move_assignableIS2_EE5valueEvE4typeERS2_S5_
FNDA:1520640,_ZNSt3__1L4moveIRPNS_12basic_stringIcNS_11char_traitsIcEENS_9allocatorIcEEEEEEONS_16remove_referenceIT_E4typeEOSA_
FNDA:506880,_ZNSt3__1L4swapIPNS_12basic_stringIcNS_11char_traitsIcEENS_9allocatorIcEEEEEENS_9enable_ifIXaasr21is_move_constructibleIT_EE5valuesr18is_move_assignableIS9_EE5valueEvE4typeERS9_SC_
FNDA:0,_ZNSt3__1L7forwardIRKN5boost2io6detail11format_itemIcNS_11char_traitsIcEENS_9allocatorIcEEEEEEOT_RNS_16remove_referenceISC_E4typeE
FNDA:0,_ZNSt3__1L4moveIRNS_9allocatorIcEEEEONS_16remove_referenceIT_E4typeEOS5_
FNDA:10692,_ZNSt3__1L4moveIRP6OpcodeEEONS_16remove_referenceIT_E4typeEOS5_
FNDA:0,_ZNSt3__1L7forwardIPKN5boost6system14error_categoryEEEOT_RNS_16remove_referenceIS6_E4typeE
FNDA:132,_ZNSt3__1L7forwardINS_14default_deleteI8EmulatorEEEEOT_RNS_16remove_referenceIS4_E4typeE
FNDA:0,_ZNSt3__1L9addressofINS_12__value_typeIPKN5boost6system14error_categoryENS_10unique_ptrINS3_6detail12std_categoryENS_14default_deleteIS9_EEEEEEEEPT_RSE_
FNDA:264,_ZNSt3__1L7forwardIRP8EmulatorEEOT_RNS_16remove_referenceIS4_E4typeE
FNDA:2376,_ZNSt3__1L7forwardIRNS_9allocatorI6OpcodeEEEEOT_RNS_16remove_referenceIS5_E4typeE
FNDA:266,_ZNSt3__1L7forwardIRP3RAMEEOT_RNS_16remove_referenceIS4_E4typeE
FNDA:0,_ZNSt3__1L7forwardINS_4pairIKPKN5boost6system14error_categoryENS_10unique_ptrINS3_6detail12std_categoryENS_14default_deleteISA_EEEEEEEEOT_RNS_16remove_referenceISF_E4typeE
FNDA:264,_ZNSt3__1L7forwardIRP7__sFILEEEOT_RNS_16remove_referenceIS4_E4typeE
FNDA:0,_ZNSt3__1L9addressofIPNS_16__tree_node_baseIPvEEEEPT_RS5_
FNDA:0,_ZNSt3__1L7forwardIRNS_9allocatorIhEEEEOT_RNS_16remove_referenceIS4_E4typeE
FNDA:616,_ZNSt3__1L7forwardIhEEOT_RNS_16remove_referenceIS1_E4typeE
FNDA:694320,_ZNSt3__1L9addressofIcEEPT_RS1_
FNDA:264,_ZNSt3__1L7forwardIPFiP7__sFILEEEEOT_RNS_16remove_referenceIS5_E4typeE
FNDA:3564,_ZNSt3__1L4swapIP6OpcodeEENS_9enable_ifIXaasr21is_move_constructibleIT_EE5valuesr18is_move_assignableIS4_EE5valueEvE4typeERS4_S7_
FNDA:0,_ZNSt3__1L7forwardIRPNS_11__tree_nodeINS_12__value_typeIPKN5boost6system14error_categoryENS_10unique_ptrINS4_6detail12std_categoryENS_14default_deleteISA_EEEEEEPvEEEEOT_RNS_16remove_referenceISJ_E4typeE
FNDA:0,_ZNSt3__1L7forwardIRKNS_12basic_stringIcNS_11char_traitsIcEENS_9allocatorIcEEEEEEOT_RNS_16remove_referenceIS9_E4typeE
FNDA:0,_ZNSt3__1L4swapIPN5boost2io6detail11format_itemIcNS_11char_traitsIcEENS_9allocatorIcEEEEEENS_9enable_ifIXaasr21is_move_constructibleIT_EE5valuesr18is_move_assignableISC_EE5valueEvE4typeERSC_SF_
FNDA:0,_ZNSt3__1L4swapIPmEENS_9enable_ifIXaasr21is_move_constructibleIT_EE5valuesr18is_move_assignableIS3_EE5valueEvE4typeERS3_S6_
FNDA:0,_ZNSt3__1L7forwardIRKNS_9allocatorIcEEEEOT_RNS_16remove_referenceIS5_E4typeE
FNDA:0,_ZNSt3__1L4moveIRN5boost2io6detail11format_itemIcNS_11char_traitsIcEENS_9allocatorIcEEEEEEONS_16remove_referenceIT_E4typeEOSC_
FNDA:270,_ZNSt3__1L7forwardIRP3CPUEEOT_RNS_16remove_referenceIS4_E4typeE
FNDA:0,_ZNSt3__1L4swapIPhEENS_9enable_ifIXaasr21is_move_constructibleIT_EE5valuesr18is_move_assignableIS3_EE5valueEvE4typeERS3_S6_
FNDA:0,_ZNSt3__1L7forwardIRbEEOT_RNS_16remove_referenceIS2_E4typeE
FNDA:0,_ZNSt3__1L7forwardIRNS_9allocatorIN5boost2io6detail11format_itemIcNS_11char_traitsIcEENS1_IcEEEEEEEEOT_RNS_16remove_referenceISC_E4typeE
FNDA:0,_ZNSt3__1L21__convert_to_integralEm
FNDA:0,_ZNSt3__1L7forwardIRPN5boost6system6detail12std_categoryEEEOT_RNS_16remove_referenceIS7_E4typeE
FNDA:224,_ZNSt3__1L7forwardINS_9allocatorIhEEEEOT_RNS_16remove_referenceIS3_E4typeE
FNDA:0,_ZNSt3__1L7forwardINS_10unique_ptrIN5boost6system6detail12std_categoryENS_14default_deleteIS5_EEEEEEOT_RNS_16remove_referenceIS9_E4typeE
FNDA:0,_ZNSt3__1L7forwardINS_14default_deleteIN5boost6system6detail12std_categoryEEEEEOT_RNS_16remove_referenceIS7_E4typeE
FNDA:102564,_ZNSt3__1L7forwardIRK6OpcodeEEOT_RNS_16remove_referenceIS4_E4typeE
FNDA:472824,_ZNSt3__1L4moveIRNS_17__compressed_pairINS_12basic_stringIcNS_11char_traitsIcEENS_9allocatorIcEEE5__repES6_EEEEONS_16remove_referenceIT_E4typeEOSC_
FNDA:0,_ZNSt3__1L4moveIRhEEONS_16remove_referenceIT_E4typeEOS3_
FNDA:0,_ZNSt3__1L4moveIRNS_9allocatorINS_12basic_stringIcNS_11char_traitsIcEENS1_IcEEEEEEEEONS_16remove_referenceIT_E4typeEOSA_
FNDA:33660,_ZNSt3__1L4moveIR6OpcodeEEONS_16remove_referenceIT_E4typeEOS4_
FNDA:0,_ZNSt3__1L7forwardINS_22__tree_node_destructorINS_9allocatorINS_11__tree_nodeINS_12__value_typeIPKN5boost6system14error_categoryENS_10unique_ptrINS6_6detail12std_categoryENS_14default_deleteISC_EEEEEEPvEEEEEEEEOT_RNS_16remove_referenceISL_E4typeE
FNDA:132,_ZNSt3__1L4moveIRNS_9allocatorI6OpcodeEEEEONS_16remove_referenceIT_E4typeEOS6_
FNDA:0,_ZNSt3__1L7forwardINS_15__tree_iteratorINS_12__value_typeIPKN5boost6system14error_categoryENS_10unique_ptrINS4_6detail12std_categoryENS_14default_deleteISA_EEEEEEPNS_11__tree_nodeISE_PvEElEEEEOT_RNS_16remove_referenceISK_E4typeE
FNDA:0,_ZNSt3__1L7forwardINS_9allocatorINS_12basic_stringIcNS_11char_traitsIcEENS1_IcEEEEEEEEOT_RNS_16remove_referenceIS8_E4typeE
FNDA:0,_ZNSt3__1L7forwardIbEEOT_RNS_16remove_referenceIS1_E4typeE
FNDA:0,_ZNSt3__1L4moveIRNS_10unique_ptrIN5boost6system6detail12std_categoryENS_14default_deleteIS5_EEEEEEONS_16remove_referenceIT_E4typeEOSB_
FNDA:0,_ZNSt3__1L9addressofINS_15__tree_end_nodeIPNS_16__tree_node_baseIPvEEEEEEPT_RS7_
FNDA:100980,_ZNSt3__1L7forwardI6OpcodeEEOT_RNS_16remove_referenceIS2_E4typeE
FNDA:0,_ZNSt3__1L4moveIRPhEEONS_16remove_referenceIT_E4typeEOS4_
FNDA:0,_ZNSt3__1L7forwardIRKNS_19__map_value_compareIPKN5boost6system14error_categoryENS_12__value_typeIS6_NS_10unique_ptrINS3_6detail12std_categoryENS_14default_deleteISA_EEEEEENS9_12cat_ptr_lessELb1EEEEEOT_RNS_16remove_referenceISJ_E4typeE
FNDA:132,_ZNSt3__1L9addressofIKcEEPT_RS2_
FNDA:0,_ZNSt3__1L4moveIRPmEEONS_16remove_referenceIT_E4typeEOS4_
FNDA:0,_ZNSt3__1L7forwardINS_9allocatorImEEEEOT_RNS_16remove_referenceIS3_E4typeE
FNDA:270336,_ZNSt3__1L7forwardIRNS_9allocatorINS_12basic_stringIcNS_11char_traitsIcEENS1_IcEEEEEEEEOT_RNS_16remove_referenceIS9_E4typeE
FNDA:0,_ZNSt3__1L4moveIRPN5boost2io6detail11format_itemIcNS_11char_traitsIcEENS_9allocatorIcEEEEEEONS_16remove_referenceIT_E4typeEOSD_
FNDA:236544,_ZNSt3__1L4moveIRNS_12basic_stringIcNS_11char_traitsIcEENS_9allocatorIcEEEEEEONS_16remove_referenceIT_E4typeEOS9_
FNDA:132,_ZNSt3__1L4moveIRPFiP7__sFILEEEEONS_16remove_referenceIT_E4typeEOS7_
FNDA:0,_ZNSt3__1L7forwardIiEEOT_RNS_16remove_referenceIS1_E4typeE
FNDA:0,_ZNSt3__1L7forwardIPN5boost6system6detail12std_categoryEEEOT_RNS_16remove_referenceIS6_E4typeE
FNDA:0,_ZNSt3__1L7forwardIN5boost2io6detail11format_itemIcNS_11char_traitsIcEENS_9allocatorIcEEEEEEOT_RNS_16remove_referenceISA_E4typeE
FNF:71
FNH:28
DA:454,694452
DA:456,694452
DA:2310,2274736
DA:2313,2274736
DA:2319,29119253
DA:2321,29119253
DA:4523,510444
DA:4526,510444
DA:4527,510444
DA:4528,510444
DA:4529,510444
DA:4705,0
LF:12
LH:11
end_of_record
TN:
SF:/Applications/Xcode.app/Contents/Developer/Toolchains/XcodeDefault.xctoolchain/usr/include/c++/v1/typeinfo
FN:180,_ZNKSt9type_info4nameEv
FN:192,_ZNKSt9type_infoeqERKS_
FN:226,_ZNSt3__1L16__throw_bad_castEv
FNDA:0,_ZNSt3__1L16__throw_bad_castEv
FNDA:0,_ZNKSt9type_infoeqERKS_
FNDA:0,_ZNKSt9type_info4nameEv
FNF:3
FNH:0
DA:180,0
DA:181,0
DA:192,0
DA:193,0
DA:226,0
DA:229,0
DA:233,0
LF:7
LH:0
end_of_record
TN:
SF:/Applications/Xcode.app/Contents/Developer/Toolchains/XcodeDefault.xctoolchain/usr/include/c++/v1/utility
FN:288,_ZNSt3__1L16move_if_noexceptINS_12basic_stringIcNS_11char_traitsIcEENS_9allocatorIcEEEEEENS_11conditionalIXaantsr29is_nothrow_move_constructibleIT_EE5valuesr21is_copy_constructibleIS8_EE5valueERKS8_OS8_E4typeERS8_
FN:288,_ZNSt3__1L16move_if_noexceptI6OpcodeEENS_11conditionalIXaantsr29is_nothrow_move_constructibleIT_EE5valuesr21is_copy_constructibleIS3_EE5valueERKS3_OS3_E4typeERS3_
FN:288,_ZNSt3__1L16move_if_noexceptIN5boost2io6detail11format_itemIcNS_11char_traitsIcEENS_9allocatorIcEEEEEENS_11conditionalIXaantsr29is_nothrow_move_constructibleIT_EE5valuesr21is_copy_constructibleISB_EE5valueERKSB_OSB_E4typeERSB_
FN:316,_ZNSt3__14pairIKPKN5boost6system14error_categoryENS_10unique_ptrINS2_6detail12std_categoryENS_14default_deleteIS9_EEEEED2Ev
FN:316,_ZNSt3__14pairIKPKN5boost6system14error_categoryENS_10unique_ptrINS2_6detail12std_categoryENS_14default_deleteIS9_EEEEED1Ev
FN:329,_ZNSt3__14pairIKPKN5boost6system14error_categoryENS_10unique_ptrINS2_6detail12std_categoryENS_14default_deleteIS9_EEEEEC1EOSD_
FN:329,_ZNSt3__14pairIKPKN5boost6system14error_categoryENS_10unique_ptrINS2_6detail12std_categoryENS_14default_deleteIS9_EEEEEC2EOSD_
FN:448,_ZNSt3__14pairINS_15__tree_iteratorINS_12__value_typeIPKN5boost6system14error_categoryENS_10unique_ptrINS4_6detail12std_categoryENS_14default_deleteISA_EEEEEEPNS_11__tree_nodeISE_PvEElEEbEC2ISJ_RbLb0EEEOT_OT0_
FN:448,_ZNSt3__14pairINS_15__tree_iteratorINS_12__value_typeIPKN5boost6system14error_categoryENS_10unique_ptrINS4_6detail12std_categoryENS_14default_deleteISA_EEEEEEPNS_11__tree_nodeISE_PvEElEEbEC1ISJ_RbLb0EEEOT_OT0_
FN:448,_ZNSt3__14pairIKPKN5boost6system14error_categoryENS_10unique_ptrINS2_6detail12std_categoryENS_14default_deleteIS9_EEEEEC2IS5_SC_Lb0EEEOT_OT0_
FN:448,_ZNSt3__14pairIKPKN5boost6system14error_categoryENS_10unique_ptrINS2_6detail12std_categoryENS_14default_deleteIS9_EEEEEC1IS5_SC_Lb0EEEOT_OT0_
FN:448,_ZNSt3__14pairIhhEC1IhhLb0EEEOT_OT0_
FN:448,_ZNSt3__14pairIhhEC2IhhLb0EEEOT_OT0_
FN:484,_ZNSt3__14pairINS_14__map_iteratorINS_15__tree_iteratorINS_12__value_typeIPKN5boost6system14error_categoryENS_10unique_ptrINS5_6detail12std_categoryENS_14default_deleteISB_EEEEEEPNS_11__tree_nodeISF_PvEElEEEEbEC1ISK_bLb0EEEONS0_IT_T0_EE
FN:484,_ZNSt3__14pairINS_14__map_iteratorINS_15__tree_iteratorINS_12__value_typeIPKN5boost6system14error_categoryENS_10unique_ptrINS5_6detail12std_categoryENS_14default_deleteISB_EEEEEEPNS_11__tree_nodeISF_PvEElEEEEbEC2ISK_bLb0EEEONS0_IT_T0_EE
FN:668,_ZNSt3__1L9make_pairIhhEENS_4pairINS_18__unwrap_ref_decayIT_E4typeENS2_IT0_E4typeEEEOS3_OS6_
FNDA:0,_ZNSt3__14pairINS_14__map_iteratorINS_15__tree_iteratorINS_12__value_typeIPKN5boost6system14error_categoryENS_10unique_ptrINS5_6detail12std_categoryENS_14default_deleteISB_EEEEEEPNS_11__tree_nodeISF_PvEElEEEEbEC2ISK_bLb0EEEONS0_IT_T0_EE
FNDA:0,_ZNSt3__14pairINS_14__map_iteratorINS_15__tree_iteratorINS_12__value_typeIPKN5boost6system14error_categoryENS_10unique_ptrINS5_6detail12std_categoryENS_14default_deleteISB_EEEEEEPNS_11__tree_nodeISF_PvEElEEEEbEC1ISK_bLb0EEEONS0_IT_T0_EE
FNDA:0,_ZNSt3__14pairIKPKN5boost6system14error_categoryENS_10unique_ptrINS2_6detail12std_categoryENS_14default_deleteIS9_EEEEEC2EOSD_
FNDA:0,_ZNSt3__14pairIKPKN5boost6system14error_categoryENS_10unique_ptrINS2_6detail12std_categoryENS_14default_deleteIS9_EEEEEC1EOSD_
FNDA:0,_ZNSt3__14pairINS_15__tree_iteratorINS_12__value_typeIPKN5boost6system14error_categoryENS_10unique_ptrINS4_6detail12std_categoryENS_14default_deleteISA_EEEEEEPNS_11__tree_nodeISE_PvEElEEbEC1ISJ_RbLb0EEEOT_OT0_
FNDA:0,_ZNSt3__14pairINS_15__tree_iteratorINS_12__value_typeIPKN5boost6system14error_categoryENS_10unique_ptrINS4_6detail12std_categoryENS_14default_deleteISA_EEEEEEPNS_11__tree_nodeISE_PvEElEEbEC2ISJ_RbLb0EEEOT_OT0_
FNDA:0,_ZNSt3__1L16move_if_noexceptIN5boost2io6detail11format_itemIcNS_11char_traitsIcEENS_9allocatorIcEEEEEENS_11conditionalIXaantsr29is_nothrow_move_constructibleIT_EE5valuesr21is_copy_constructibleISB_EE5valueERKSB_OSB_E4typeERSB_
FNDA:236544,_ZNSt3__1L16move_if_noexceptINS_12basic_stringIcNS_11char_traitsIcEENS_9allocatorIcEEEEEENS_11conditionalIXaantsr29is_nothrow_move_constructibleIT_EE5valuesr21is_copy_constructibleIS8_EE5valueERKS8_OS8_E4typeERS8_
FNDA:33660,_ZNSt3__1L16move_if_noexceptI6OpcodeEENS_11conditionalIXaantsr29is_nothrow_move_constructibleIT_EE5valuesr21is_copy_constructibleIS3_EE5valueERKS3_OS3_E4typeERS3_
FNDA:154,_ZNSt3__1L9make_pairIhhEENS_4pairINS_18__unwrap_ref_decayIT_E4typeENS2_IT0_E4typeEEEOS3_OS6_
FNDA:154,_ZNSt3__14pairIhhEC2IhhLb0EEEOT_OT0_
FNDA:154,_ZNSt3__14pairIhhEC1IhhLb0EEEOT_OT0_
FNDA:0,_ZNSt3__14pairIKPKN5boost6system14error_categoryENS_10unique_ptrINS2_6detail12std_categoryENS_14default_deleteIS9_EEEEED1Ev
FNDA:0,_ZNSt3__14pairIKPKN5boost6system14error_categoryENS_10unique_ptrINS2_6detail12std_categoryENS_14default_deleteIS9_EEEEEC1IS5_SC_Lb0EEEOT_OT0_
FNDA:0,_ZNSt3__14pairIKPKN5boost6system14error_categoryENS_10unique_ptrINS2_6detail12std_categoryENS_14default_deleteIS9_EEEEEC2IS5_SC_Lb0EEEOT_OT0_
FNDA:0,_ZNSt3__14pairIKPKN5boost6system14error_categoryENS_10unique_ptrINS2_6detail12std_categoryENS_14default_deleteIS9_EEEEED2Ev
FNF:16
FNH:5
DA:288,270204
DA:290,270204
DA:316,0
DA:329,0
DA:448,308
DA:451,308
DA:484,0
DA:487,0
DA:668,154
DA:670,154
DA:671,154
LF:11
LH:7
end_of_record
TN:
SF:/Applications/Xcode.app/Contents/Developer/Toolchains/XcodeDefault.xctoolchain/usr/include/c++/v1/vector
FN:304,_ZNSt3__120__vector_base_commonILb1EEC2Ev
FN:348,_ZNSt3__113__vector_baseI6OpcodeNS_9allocatorIS1_EEE7__allocEv
FN:348,_ZNSt3__113__vector_baseIhNS_9allocatorIhEEE7__allocEv
FN:348,_ZNSt3__113__vector_baseIN5boost2io6detail11format_itemIcNS_11char_traitsIcEENS_9allocatorIcEEEENS7_IS9_EEE7__allocEv
FN:348,_ZNSt3__113__vector_baseINS_12basic_stringIcNS_11char_traitsIcEENS_9allocatorIcEEEENS4_IS6_EEE7__allocEv
FN:351,_ZNKSt3__113__vector_baseINS_12basic_stringIcNS_11char_traitsIcEENS_9allocatorIcEEEENS4_IS6_EEE7__allocEv
FN:351,_ZNKSt3__113__vector_baseIN5boost2io6detail11format_itemIcNS_11char_traitsIcEENS_9allocatorIcEEEENS7_IS9_EEE7__allocEv
FN:351,_ZNKSt3__113__vector_baseIhNS_9allocatorIhEEE7__allocEv
FN:351,_ZNKSt3__113__vector_baseI6OpcodeNS_9allocatorIS1_EEE7__allocEv
FN:354,_ZNSt3__113__vector_baseI6OpcodeNS_9allocatorIS1_EEE9__end_capEv
FN:354,_ZNSt3__113__vector_baseIN5boost2io6detail11format_itemIcNS_11char_traitsIcEENS_9allocatorIcEEEENS7_IS9_EEE9__end_capEv
FN:354,_ZNSt3__113__vector_baseIhNS_9allocatorIhEEE9__end_capEv
FN:354,_ZNSt3__113__vector_baseINS_12basic_stringIcNS_11char_traitsIcEENS_9allocatorIcEEEENS4_IS6_EEE9__end_capEv
FN:357,_ZNKSt3__113__vector_baseINS_12basic_stringIcNS_11char_traitsIcEENS_9allocatorIcEEEENS4_IS6_EEE9__end_capEv
FN:357,_ZNKSt3__113__vector_baseIN5boost2io6detail11format_itemIcNS_11char_traitsIcEENS_9allocatorIcEEEENS7_IS9_EEE9__end_capEv
FN:357,_ZNKSt3__113__vector_baseI6OpcodeNS_9allocatorIS1_EEE9__end_capEv
FN:357,_ZNKSt3__113__vector_baseIhNS_9allocatorIhEEE9__end_capEv
FN:370,_ZNSt3__113__vector_baseINS_12basic_stringIcNS_11char_traitsIcEENS_9allocatorIcEEEENS4_IS6_EEE5clearEv
FN:370,_ZNSt3__113__vector_baseIhNS_9allocatorIhEEE5clearEv
FN:370,_ZNSt3__113__vector_baseI6OpcodeNS_9allocatorIS1_EEE5clearEv
FN:370,_ZNSt3__113__vector_baseIN5boost2io6detail11format_itemIcNS_11char_traitsIcEENS_9allocatorIcEEEENS7_IS9_EEE5clearEv
FN:372,_ZNKSt3__113__vector_baseINS_12basic_stringIcNS_11char_traitsIcEENS_9allocatorIcEEEENS4_IS6_EEE8capacityEv
FN:372,_ZNKSt3__113__vector_baseIhNS_9allocatorIhEEE8capacityEv
FN:372,_ZNKSt3__113__vector_baseI6OpcodeNS_9allocatorIS1_EEE8capacityEv
FN:372,_ZNKSt3__113__vector_baseIN5boost2io6detail11format_itemIcNS_11char_traitsIcEENS_9allocatorIcEEEENS7_IS9_EEE8capacityEv
FN:384,_ZNSt3__113__vector_baseI6OpcodeNS_9allocatorIS1_EEE19__move_assign_allocERS4_
FN:408,_ZNSt3__113__vector_baseI6OpcodeNS_9allocatorIS1_EEE19__move_assign_allocERS4_NS_17integral_constantIbLb1EEE
FN:423,_ZNSt3__113__vector_baseIN5boost2io6detail11format_itemIcNS_11char_traitsIcEENS_9allocatorIcEEEENS7_IS9_EEE17__destruct_at_endEPS9_
FN:423,_ZNSt3__113__vector_baseI6OpcodeNS_9allocatorIS1_EEE17__destruct_at_endEPS1_
FN:423,_ZNSt3__113__vector_baseINS_12basic_stringIcNS_11char_traitsIcEENS_9allocatorIcEEEENS4_IS6_EEE17__destruct_at_endEPS6_
FN:423,_ZNSt3__113__vector_baseIhNS_9allocatorIhEEE17__destruct_at_endEPh
FN:433,_ZNSt3__113__vector_baseIhNS_9allocatorIhEEEC2Ev
FN:433,_ZNSt3__113__vector_baseI6OpcodeNS_9allocatorIS1_EEEC2Ev
FN:433,_ZNSt3__113__vector_baseIN5boost2io6detail11format_itemIcNS_11char_traitsIcEENS_9allocatorIcEEEENS7_IS9_EEEC2Ev
FN:433,_ZNSt3__113__vector_baseINS_12basic_stringIcNS_11char_traitsIcEENS_9allocatorIcEEEENS4_IS6_EEEC2Ev
FN:453,_ZNSt3__113__vector_baseIhNS_9allocatorIhEEEC2EOS2_
FN:453,_ZNSt3__113__vector_baseINS_12basic_stringIcNS_11char_traitsIcEENS_9allocatorIcEEEENS4_IS6_EEEC2EOS7_
FN:460,_ZNSt3__113__vector_baseIN5boost2io6detail11format_itemIcNS_11char_traitsIcEENS_9allocatorIcEEEENS7_IS9_EEED2Ev
FN:460,_ZNSt3__113__vector_baseINS_12basic_stringIcNS_11char_traitsIcEENS_9allocatorIcEEEENS4_IS6_EEED2Ev
FN:460,_ZNSt3__113__vector_baseI6OpcodeNS_9allocatorIS1_EEED2Ev
FN:460,_ZNSt3__113__vector_baseIhNS_9allocatorIhEEED2Ev
FN:496,_ZNSt3__16vectorIN5boost2io6detail11format_itemIcNS_11char_traitsIcEENS_9allocatorIcEEEENS7_IS9_EEEC1Ev
FN:496,_ZNSt3__16vectorIN5boost2io6detail11format_itemIcNS_11char_traitsIcEENS_9allocatorIcEEEENS7_IS9_EEEC2Ev
FN:496,_ZNSt3__16vectorINS_12basic_stringIcNS_11char_traitsIcEENS_9allocatorIcEEEENS4_IS6_EEEC2Ev
FN:496,_ZNSt3__16vectorI6OpcodeNS_9allocatorIS1_EEEC2Ev
FN:496,_ZNSt3__16vectorIhNS_9allocatorIhEEEC1Ev
FN:496,_ZNSt3__16vectorINS_12basic_stringIcNS_11char_traitsIcEENS_9allocatorIcEEEENS4_IS6_EEEC1Ev
FN:496,_ZNSt3__16vectorI6OpcodeNS_9allocatorIS1_EEEC1Ev
FN:496,_ZNSt3__16vectorIhNS_9allocatorIhEEEC2Ev
FN:550,_ZNSt3__16vectorIN5boost2io6detail11format_itemIcNS_11char_traitsIcEENS_9allocatorIcEEEENS7_IS9_EEED1Ev
FN:550,_ZNSt3__16vectorIhNS_9allocatorIhEEED2Ev
FN:550,_ZNSt3__16vectorI6OpcodeNS_9allocatorIS1_EEED2Ev
FN:550,_ZNSt3__16vectorINS_12basic_stringIcNS_11char_traitsIcEENS_9allocatorIcEEEENS4_IS6_EEED2Ev
FN:550,_ZNSt3__16vectorINS_12basic_stringIcNS_11char_traitsIcEENS_9allocatorIcEEEENS4_IS6_EEED1Ev
FN:550,_ZNSt3__16vectorIN5boost2io6detail11format_itemIcNS_11char_traitsIcEENS_9allocatorIcEEEENS7_IS9_EEED2Ev
FN:550,_ZNSt3__16vectorI6OpcodeNS_9allocatorIS1_EEED1Ev
FN:550,_ZNSt3__16vectorIhNS_9allocatorIhEEED1Ev
FN:656,_ZNKSt3__16vectorIN5boost2io6detail11format_itemIcNS_11char_traitsIcEENS_9allocatorIcEEEENS7_IS9_EEE4sizeEv
FN:656,_ZNKSt3__16vectorI6OpcodeNS_9allocatorIS1_EEE4sizeEv
FN:656,_ZNKSt3__16vectorIhNS_9allocatorIhEEE4sizeEv
FN:656,_ZNKSt3__16vectorINS_12basic_stringIcNS_11char_traitsIcEENS_9allocatorIcEEEENS4_IS6_EEE4sizeEv
FN:659,_ZNKSt3__16vectorINS_12basic_stringIcNS_11char_traitsIcEENS_9allocatorIcEEEENS4_IS6_EEE8capacityEv
FN:659,_ZNKSt3__16vectorIhNS_9allocatorIhEEE8capacityEv
FN:659,_ZNKSt3__16vectorIN5boost2io6detail11format_itemIcNS_11char_traitsIcEENS_9allocatorIcEEEENS7_IS9_EEE8capacityEv
FN:659,_ZNKSt3__16vectorI6OpcodeNS_9allocatorIS1_EEE8capacityEv
FN:683,_ZNSt3__16vectorINS_12basic_stringIcNS_11char_traitsIcEENS_9allocatorIcEEEENS4_IS6_EEE4backEv
FN:698,_ZNKSt3__16vectorIhNS_9allocatorIhEEE4dataEv
FN:698,_ZNKSt3__16vectorI6OpcodeNS_9allocatorIS1_EEE4dataEv
FN:698,_ZNKSt3__16vectorINS_12basic_stringIcNS_11char_traitsIcEENS_9allocatorIcEEEENS4_IS6_EEE4dataEv
FN:698,_ZNKSt3__16vectorIN5boost2io6detail11format_itemIcNS_11char_traitsIcEENS_9allocatorIcEEEENS7_IS9_EEE4dataEv
FN:707,_ZNSt3__16vectorINS_12basic_stringIcNS_11char_traitsIcEENS_9allocatorIcEEEENS4_IS6_EEE14__emplace_backIS6_EEvOT_
FN:770,_ZNSt3__16vectorIN5boost2io6detail11format_itemIcNS_11char_traitsIcEENS_9allocatorIcEEEENS7_IS9_EEE5clearEv
FN:770,_ZNSt3__16vectorI6OpcodeNS_9allocatorIS1_EEE5clearEv
FN:830,_ZNSt3__16vectorIN5boost2io6detail11format_itemIcNS_11char_traitsIcEENS_9allocatorIcEEEENS7_IS9_EEE17__destruct_at_endEPS9_
FN:862,_ZNKSt3__16vectorIN5boost2io6detail11format_itemIcNS_11char_traitsIcEENS_9allocatorIcEEEENS7_IS9_EEE31__annotate_contiguous_containerEPKvSD_SD_SD_
FN:862,_ZNKSt3__16vectorIhNS_9allocatorIhEEE31__annotate_contiguous_containerEPKvS5_S5_S5_
FN:862,_ZNKSt3__16vectorI6OpcodeNS_9allocatorIS1_EEE31__annotate_contiguous_containerEPKvS6_S6_S6_
FN:862,_ZNKSt3__16vectorINS_12basic_stringIcNS_11char_traitsIcEENS_9allocatorIcEEEENS4_IS6_EEE31__annotate_contiguous_containerEPKvSA_SA_SA_
FN:866,_ZNKSt3__16vectorIhNS_9allocatorIhEEE14__annotate_newEm
FN:866,_ZNKSt3__16vectorI6OpcodeNS_9allocatorIS1_EEE14__annotate_newEm
FN:866,_ZNKSt3__16vectorIN5boost2io6detail11format_itemIcNS_11char_traitsIcEENS_9allocatorIcEEEENS7_IS9_EEE14__annotate_newEm
FN:866,_ZNKSt3__16vectorINS_12basic_stringIcNS_11char_traitsIcEENS_9allocatorIcEEEENS4_IS6_EEE14__annotate_newEm
FN:872,_ZNKSt3__16vectorINS_12basic_stringIcNS_11char_traitsIcEENS_9allocatorIcEEEENS4_IS6_EEE17__annotate_deleteEv
FN:872,_ZNKSt3__16vectorI6OpcodeNS_9allocatorIS1_EEE17__annotate_deleteEv
FN:872,_ZNKSt3__16vectorIhNS_9allocatorIhEEE17__annotate_deleteEv
FN:872,_ZNKSt3__16vectorIN5boost2io6detail11format_itemIcNS_11char_traitsIcEENS_9allocatorIcEEEENS7_IS9_EEE17__annotate_deleteEv
FN:885,_ZNKSt3__16vectorI6OpcodeNS_9allocatorIS1_EEE17__annotate_shrinkEm
FN:885,_ZNKSt3__16vectorIN5boost2io6detail11format_itemIcNS_11char_traitsIcEENS_9allocatorIcEEEENS7_IS9_EEE17__annotate_shrinkEm
FN:910,_ZNSt3__16vectorIN5boost2io6detail11format_itemIcNS_11char_traitsIcEENS_9allocatorIcEEEENS7_IS9_EEE24__RAII_IncreaseAnnotatorC2ERKSB_m
FN:910,_ZNSt3__16vectorI6OpcodeNS_9allocatorIS1_EEE24__RAII_IncreaseAnnotatorC1ERKS4_m
FN:910,_ZNSt3__16vectorINS_12basic_stringIcNS_11char_traitsIcEENS_9allocatorIcEEEENS4_IS6_EEE24__RAII_IncreaseAnnotatorC1ERKS8_m
FN:910,_ZNSt3__16vectorINS_12basic_stringIcNS_11char_traitsIcEENS_9allocatorIcEEEENS4_IS6_EEE24__RAII_IncreaseAnnotatorC2ERKS8_m
FN:910,_ZNSt3__16vectorIN5boost2io6detail11format_itemIcNS_11char_traitsIcEENS_9allocatorIcEEEENS7_IS9_EEE24__RAII_IncreaseAnnotatorC1ERKSB_m
FN:910,_ZNSt3__16vectorIhNS_9allocatorIhEEE24__RAII_IncreaseAnnotatorC2ERKS3_m
FN:910,_ZNSt3__16vectorIhNS_9allocatorIhEEE24__RAII_IncreaseAnnotatorC1ERKS3_m
FN:910,_ZNSt3__16vectorI6OpcodeNS_9allocatorIS1_EEE24__RAII_IncreaseAnnotatorC2ERKS4_m
FN:911,_ZNSt3__16vectorINS_12basic_stringIcNS_11char_traitsIcEENS_9allocatorIcEEEENS4_IS6_EEE24__RAII_IncreaseAnnotator6__doneEv
FN:911,_ZNSt3__16vectorIhNS_9allocatorIhEEE24__RAII_IncreaseAnnotator6__doneEv
FN:911,_ZNSt3__16vectorIN5boost2io6detail11format_itemIcNS_11char_traitsIcEENS_9allocatorIcEEEENS7_IS9_EEE24__RAII_IncreaseAnnotator6__doneEv
FN:911,_ZNSt3__16vectorI6OpcodeNS_9allocatorIS1_EEE24__RAII_IncreaseAnnotator6__doneEv
FN:935,_ZNSt3__16vectorI6OpcodeNS_9allocatorIS1_EEE26__swap_out_circular_bufferERNS_14__split_bufferIS1_RS3_EE
FN:935,_ZNSt3__16vectorIN5boost2io6detail11format_itemIcNS_11char_traitsIcEENS_9allocatorIcEEEENS7_IS9_EEE26__swap_out_circular_bufferERNS_14__split_bufferIS9_RSA_EE
FN:935,_ZNSt3__16vectorINS_12basic_stringIcNS_11char_traitsIcEENS_9allocatorIcEEEENS4_IS6_EEE26__swap_out_circular_bufferERNS_14__split_bufferIS6_RS7_EE
FN:935,_ZNSt3__16vectorIhNS_9allocatorIhEEE26__swap_out_circular_bufferERNS_14__split_bufferIhRS2_EE
FN:973,_ZNSt3__16vectorIN5boost2io6detail11format_itemIcNS_11char_traitsIcEENS_9allocatorIcEEEENS7_IS9_EEE11__vallocateEm
FN:973,_ZNSt3__16vectorINS_12basic_stringIcNS_11char_traitsIcEENS_9allocatorIcEEEENS4_IS6_EEE11__vallocateEm
FN:973,_ZNSt3__16vectorIhNS_9allocatorIhEEE11__vallocateEm
FN:984,_ZNSt3__16vectorI6OpcodeNS_9allocatorIS1_EEE13__vdeallocateEv
FN:984,_ZNSt3__16vectorIN5boost2io6detail11format_itemIcNS_11char_traitsIcEENS_9allocatorIcEEEENS7_IS9_EEE13__vdeallocateEv
FN:996,_ZNKSt3__16vectorIhNS_9allocatorIhEEE8max_sizeEv
FN:996,_ZNKSt3__16vectorIN5boost2io6detail11format_itemIcNS_11char_traitsIcEENS_9allocatorIcEEEENS7_IS9_EEE8max_sizeEv
FN:996,_ZNKSt3__16vectorINS_12basic_stringIcNS_11char_traitsIcEENS_9allocatorIcEEEENS4_IS6_EEE8max_sizeEv
FN:996,_ZNKSt3__16vectorI6OpcodeNS_9allocatorIS1_EEE8max_sizeEv
FN:1006,_ZNKSt3__16vectorIhNS_9allocatorIhEEE11__recommendEm
FN:1006,_ZNKSt3__16vectorIN5boost2io6detail11format_itemIcNS_11char_traitsIcEENS_9allocatorIcEEEENS7_IS9_EEE11__recommendEm
FN:1006,_ZNKSt3__16vectorI6OpcodeNS_9allocatorIS1_EEE11__recommendEm
FN:1006,_ZNKSt3__16vectorINS_12basic_stringIcNS_11char_traitsIcEENS_9allocatorIcEEEENS4_IS6_EEE11__recommendEm
FN:1046,_ZNSt3__16vectorIN5boost2io6detail11format_itemIcNS_11char_traitsIcEENS_9allocatorIcEEEENS7_IS9_EEE18__construct_at_endEmRKS9_
FN:1046,_ZNSt3__16vectorIhNS_9allocatorIhEEE18__construct_at_endEmRKh
FN:1066,_ZNSt3__16vectorINS_12basic_stringIcNS_11char_traitsIcEENS_9allocatorIcEEEENS4_IS6_EEE18__construct_at_endIPS6_EENS_9enable_ifIXsr21__is_forward_iteratorIT_EE5valueEvE4typeESC_SC_m
FN:1066,_ZNSt3__16vectorIhNS_9allocatorIhEEE18__construct_at_endIPhEENS_9enable_ifIXsr21__is_forward_iteratorIT_EE5valueEvE4typeES7_S7_m
FN:1066,_ZNSt3__16vectorIhNS_9allocatorIhEEE18__construct_at_endIPKhEENS_9enable_ifIXsr21__is_forward_iteratorIT_EE5valueEvE4typeES8_S8_m
FN:1099,_ZNSt3__16vectorIN5boost2io6detail11format_itemIcNS_11char_traitsIcEENS_9allocatorIcEEEENS7_IS9_EEE8__appendEmRKS9_
FN:1142,_ZNSt3__16vectorIhNS_9allocatorIhEEEC2EmRKh
FN:1142,_ZNSt3__16vectorIhNS_9allocatorIhEEEC1EmRKh
FN:1170,_ZNSt3__16vectorINS_12basic_stringIcNS_11char_traitsIcEENS_9allocatorIcEEEENS4_IS6_EEEC1IN5boost9iterators18transform_iteratorINSA_9algorithm6detail20copy_iterator_rangeFIS6_NS_11__wrap_iterIPcEEEENSD_14split_iteratorISI_EENSA_11use_defaultESM_EEEET_NS_9enable_ifIXaaaasr19__is_input_iteratorISO_EE5valuentsr21__is_forward_iteratorISO_EE5valuesr16is_constructibleIS6_NS_15iterator_traitsISO_E9referenceEEE5valueESO_E4typeE
FN:1170,_ZNSt3__16vectorINS_12basic_stringIcNS_11char_traitsIcEENS_9allocatorIcEEEENS4_IS6_EEEC2IN5boost9iterators18transform_iteratorINSA_9algorithm6detail20copy_iterator_rangeFIS6_NS_11__wrap_iterIPcEEEENSD_14split_iteratorISI_EENSA_11use_defaultESM_EEEET_NS_9enable_ifIXaaaasr19__is_input_iteratorISO_EE5valuentsr21__is_forward_iteratorISO_EE5valuesr16is_constructibleIS6_NS_15iterator_traitsISO_E9referenceEEE5valueESO_E4typeE
FN:1243,_ZNSt3__16vectorINS_12basic_stringIcNS_11char_traitsIcEENS_9allocatorIcEEEENS4_IS6_EEEC1ERKS8_
FN:1243,_ZNSt3__16vectorIhNS_9allocatorIhEEEC1ERKS3_
FN:1243,_ZNSt3__16vectorIhNS_9allocatorIhEEEC2ERKS3_
FN:1243,_ZNSt3__16vectorINS_12basic_stringIcNS_11char_traitsIcEENS_9allocatorIcEEEENS4_IS6_EEEC2ERKS8_
FN:1321,_ZNSt3__16vectorIhNS_9allocatorIhEEEC2ESt16initializer_listIhE
FN:1321,_ZNSt3__16vectorIhNS_9allocatorIhEEEC1ESt16initializer_listIhE
FN:1351,_ZNSt3__16vectorI6OpcodeNS_9allocatorIS1_EEEaSEOS4_
FN:1375,_ZNSt3__16vectorI6OpcodeNS_9allocatorIS1_EEE13__move_assignERS4_NS_17integral_constantIbLb1EEE
FN:1462,_ZNSt3__16vectorIN5boost2io6detail11format_itemIcNS_11char_traitsIcEENS_9allocatorIcEEEENS7_IS9_EEE6assignEmRKS9_
FN:1485,_ZNSt3__16vectorIhNS_9allocatorIhEEE11__make_iterEPh
FN:1509,_ZNSt3__16vectorIhNS_9allocatorIhEEE5beginEv
FN:1525,_ZNSt3__16vectorIhNS_9allocatorIhEEE3endEv
FN:1541,_ZNSt3__16vectorIhNS_9allocatorIhEEEixEm
FN:1541,_ZNSt3__16vectorI6OpcodeNS_9allocatorIS1_EEEixEm
FN:1541,_ZNSt3__16vectorINS_12basic_stringIcNS_11char_traitsIcEENS_9allocatorIcEEEENS4_IS6_EEEixEm
FN:1541,_ZNSt3__16vectorIN5boost2io6detail11format_itemIcNS_11char_traitsIcEENS_9allocatorIcEEEENS7_IS9_EEEixEm
FN:1550,_ZNKSt3__16vectorIN5boost2io6detail11format_itemIcNS_11char_traitsIcEENS_9allocatorIcEEEENS7_IS9_EEEixEm
FN:1612,_ZNSt3__16vectorIhNS_9allocatorIhEEE21__push_back_slow_pathIhEEvOT_
FN:1612,_ZNSt3__16vectorINS_12basic_stringIcNS_11char_traitsIcEENS_9allocatorIcEEEENS4_IS6_EEE21__push_back_slow_pathIRKS6_EEvOT_
FN:1612,_ZNSt3__16vectorI6OpcodeNS_9allocatorIS1_EEE21__push_back_slow_pathIRKS1_EEvOT_
FN:1628,_ZNSt3__16vectorINS_12basic_stringIcNS_11char_traitsIcEENS_9allocatorIcEEEENS4_IS6_EEE9push_backERKS6_
FN:1628,_ZNSt3__16vectorI6OpcodeNS_9allocatorIS1_EEE9push_backERKS1_
FN:1647,_ZNSt3__16vectorIhNS_9allocatorIhEEE9push_backEOh
FN:1665,_ZNSt3__16vectorINS_12basic_stringIcNS_11char_traitsIcEENS_9allocatorIcEEEENS4_IS6_EEE24__emplace_back_slow_pathIJS6_EEEvDpOT_
FN:1683,_ZNSt3__16vectorINS_12basic_stringIcNS_11char_traitsIcEENS_9allocatorIcEEEENS4_IS6_EEE12emplace_backIJS6_EEERS6_DpOT_
FN:2055,_ZNSt3__16vectorIN5boost2io6detail11format_itemIcNS_11char_traitsIcEENS_9allocatorIcEEEENS7_IS9_EEE6resizeEmRKS9_
FN:2066,_ZNSt3__16vectorINS_12basic_stringIcNS_11char_traitsIcEENS_9allocatorIcEEEENS4_IS6_EEE4swapERS8_
FN:2146,_ZNSt3__16vectorIN5boost2io6detail11format_itemIcNS_11char_traitsIcEENS_9allocatorIcEEEENS7_IS9_EEE26__invalidate_all_iteratorsEv
FN:2146,_ZNSt3__16vectorINS_12basic_stringIcNS_11char_traitsIcEENS_9allocatorIcEEEENS4_IS6_EEE26__invalidate_all_iteratorsEv
FN:2146,_ZNSt3__16vectorIhNS_9allocatorIhEEE26__invalidate_all_iteratorsEv
FN:2146,_ZNSt3__16vectorI6OpcodeNS_9allocatorIS1_EEE26__invalidate_all_iteratorsEv
FN:2157,_ZNSt3__16vectorIN5boost2io6detail11format_itemIcNS_11char_traitsIcEENS_9allocatorIcEEEENS7_IS9_EEE27__invalidate_iterators_pastEPS9_
FN:2220,_ZNSt3__16vectorIbNS_9allocatorIbEEE5__capEv
FN:2223,_ZNKSt3__16vectorIbNS_9allocatorIbEEE5__capEv
FN:2226,_ZNSt3__16vectorIbNS_9allocatorIbEEE7__allocEv
FN:2229,_ZNKSt3__16vectorIbNS_9allocatorIbEEE7__allocEv
FN:2235,_ZNSt3__16vectorIbNS_9allocatorIbEEE26__internal_cap_to_externalEm
FN:2238,_ZNSt3__16vectorIbNS_9allocatorIbEEE26__external_cap_to_internalEm
FN:2328,_ZNKSt3__16vectorIbNS_9allocatorIbEEE8capacityEv
FN:2331,_ZNKSt3__16vectorIbNS_9allocatorIbEEE4sizeEv
FN:2340,_ZNSt3__16vectorIbNS_9allocatorIbEEE5beginEv
FN:2346,_ZNSt3__16vectorIbNS_9allocatorIbEEE3endEv
FN:2366,_ZNKSt3__16vectorIbNS_9allocatorIbEEE6cbeginEv
FN:2369,_ZNKSt3__16vectorIbNS_9allocatorIbEEE4cendEv
FN:2378,_ZNSt3__16vectorIbNS_9allocatorIbEEEixEm
FN:2462,_ZNSt3__16vectorIbNS_9allocatorIbEEE10__align_itEm
FN:2475,_ZNSt3__16vectorIbNS_9allocatorIbEEE10__make_refEm
FN:2481,_ZNSt3__16vectorIbNS_9allocatorIbEEE11__make_iterEm
FN:2484,_ZNKSt3__16vectorIbNS_9allocatorIbEEE11__make_iterEm
FN:2541,_ZNSt3__16vectorIbNS_9allocatorIbEEE26__invalidate_all_iteratorsEv
FN:2554,_ZNSt3__16vectorIbNS_9allocatorIbEEE11__vallocateEm
FN:2579,_ZNKSt3__16vectorIbNS_9allocatorIbEEE8max_sizeEv
FN:2592,_ZNKSt3__16vectorIbNS_9allocatorIbEEE11__recommendEm
FN:2631,_ZNSt3__16vectorIbNS_9allocatorIbEEE18__construct_at_endINS_14__bit_iteratorIS3_Lb0ELm0EEEEENS_9enable_ifIXsr21__is_forward_iteratorIT_EE5valueEvE4typeES8_S8_
FN:2647,_ZNSt3__16vectorIbNS_9allocatorIbEEEC2Ev
FN:2647,_ZNSt3__16vectorIbNS_9allocatorIbEEEC1Ev
FN:2657,_ZNSt3__16vectorIbNS_9allocatorIbEEEC2ERKS2_
FN:2657,_ZNSt3__16vectorIbNS_9allocatorIbEEEC1ERKS2_
FN:2842,_ZNSt3__16vectorIbNS_9allocatorIbEEED2Ev
FN:2842,_ZNSt3__16vectorIbNS_9allocatorIbEEED1Ev
FN:3034,_ZNSt3__16vectorIbNS_9allocatorIbEEE7reserveEm
FN:3248,_ZNSt3__16vectorIbNS_9allocatorIbEEE4swapERS3_
FN:3265,_ZNSt3__16vectorIbNS_9allocatorIbEEE6resizeEmb
FNDA:132,_ZNSt3__16vectorI6OpcodeNS_9allocatorIS1_EEE13__move_assignERS4_NS_17integral_constantIbLb1EEE
FNDA:0,_ZNKSt3__16vectorIN5boost2io6detail11format_itemIcNS_11char_traitsIcEENS_9allocatorIcEEEENS7_IS9_EEE17__annotate_shrinkEm
FNDA:32604,_ZNSt3__16vectorI6OpcodeNS_9allocatorIS1_EEE24__RAII_IncreaseAnnotator6__doneEv
FNDA:33792,_ZNSt3__16vectorINS_12basic_stringIcNS_11char_traitsIcEENS_9allocatorIcEEEENS4_IS6_EEEC1Ev
FNDA:56,_ZNSt3__16vectorIhNS_9allocatorIhEEEC1ESt16initializer_listIhE
FNDA:0,_ZNSt3__16vectorIbNS_9allocatorIbEEEC2Ev
FNDA:6600,_ZNKSt3__113__vector_baseI6OpcodeNS_9allocatorIS1_EEE8capacityEv
FNDA:0,_ZNSt3__113__vector_baseIN5boost2io6detail11format_itemIcNS_11char_traitsIcEENS_9allocatorIcEEEENS7_IS9_EEE7__allocEv
FNDA:0,_ZNKSt3__16vectorIN5boost2io6detail11format_itemIcNS_11char_traitsIcEENS_9allocatorIcEEEENS7_IS9_EEE17__annotate_deleteEv
FNDA:135,_ZNSt3__16vectorIhNS_9allocatorIhEEE18__construct_at_endEmRKh
FNDA:608256,_ZNKSt3__16vectorINS_12basic_stringIcNS_11char_traitsIcEENS_9allocatorIcEEEENS4_IS6_EEE4sizeEv
FNDA:303,_ZNKSt3__16vectorIhNS_9allocatorIhEEE17__annotate_deleteEv
FNDA:6468,_ZNKSt3__16vectorI6OpcodeNS_9allocatorIS1_EEE8capacityEv
FNDA:0,_ZNKSt3__113__vector_baseIN5boost2io6detail11format_itemIcNS_11char_traitsIcEENS_9allocatorIcEEEENS7_IS9_EEE8capacityEv
FNDA:0,_ZNSt3__16vectorINS_12basic_stringIcNS_11char_traitsIcEENS_9allocatorIcEEEENS4_IS6_EEE21__push_back_slow_pathIRKS6_EEvOT_
FNDA:33792,_ZNSt3__16vectorINS_12basic_stringIcNS_11char_traitsIcEENS_9allocatorIcEEEENS4_IS6_EEE4swapERS8_
FNDA:413,_ZNKSt3__113__vector_baseIhNS_9allocatorIhEEE7__allocEv
FNDA:264,_ZNSt3__16vectorI6OpcodeNS_9allocatorIS1_EEEC1Ev
FNDA:33792,_ZNSt3__16vectorI6OpcodeNS_9allocatorIS1_EEE9push_backERKS1_
FNDA:0,_ZNSt3__16vectorIbNS_9allocatorIbEEE18__construct_at_endINS_14__bit_iteratorIS3_Lb0ELm0EEEEENS_9enable_ifIXsr21__is_forward_iteratorIT_EE5valueEvE4typeES8_S8_
FNDA:0,_ZNKSt3__113__vector_baseIN5boost2io6detail11format_itemIcNS_11char_traitsIcEENS_9allocatorIcEEEENS7_IS9_EEE7__allocEv
FNDA:0,_ZNKSt3__16vectorIN5boost2io6detail11format_itemIcNS_11char_traitsIcEENS_9allocatorIcEEEENS7_IS9_EEE4dataEv
FNDA:0,_ZNSt3__16vectorIbNS_9allocatorIbEEED2Ev
FNDA:67584,_ZNSt3__113__vector_baseINS_12basic_stringIcNS_11char_traitsIcEENS_9allocatorIcEEEENS4_IS6_EEEC2Ev
FNDA:0,_ZNSt3__16vectorIN5boost2io6detail11format_itemIcNS_11char_traitsIcEENS_9allocatorIcEEEENS7_IS9_EEE27__invalidate_iterators_pastEPS9_
FNDA:1188,_ZNSt3__16vectorI6OpcodeNS_9allocatorIS1_EEE21__push_back_slow_pathIRKS1_EEvOT_
FNDA:301,_ZNSt3__113__vector_baseIhNS_9allocatorIhEEE9__end_capEv
FNDA:0,_ZNSt3__113__vector_baseIN5boost2io6detail11format_itemIcNS_11char_traitsIcEENS_9allocatorIcEEEENS7_IS9_EEE5clearEv
FNDA:132,_ZNSt3__113__vector_baseI6OpcodeNS_9allocatorIS1_EEE19__move_assign_allocERS4_
FNDA:264,_ZNSt3__16vectorI6OpcodeNS_9allocatorIS1_EEED1Ev
FNDA:574464,_ZNSt3__113__vector_baseINS_12basic_stringIcNS_11char_traitsIcEENS_9allocatorIcEEEENS4_IS6_EEE7__allocEv
FNDA:32604,_ZNSt3__16vectorI6OpcodeNS_9allocatorIS1_EEE24__RAII_IncreaseAnnotatorC2ERKS4_m
FNDA:33792,_ZNSt3__16vectorINS_12basic_stringIcNS_11char_traitsIcEENS_9allocatorIcEEEENS4_IS6_EEEC2IN5boost9iterators18transform_iteratorINSA_9algorithm6detail20copy_iterator_rangeFIS6_NS_11__wrap_iterIPcEEEENSD_14split_iteratorISI_EENSA_11use_defaultESM_EEEET_NS_9enable_ifIXaaaasr19__is_input_iteratorISO_EE5valuentsr21__is_forward_iteratorISO_EE5valuesr16is_constructibleIS6_NS_15iterator_traitsISO_E9referenceEEE5valueESO_E4typeE
FNDA:0,_ZNSt3__16vectorIbNS_9allocatorIbEEE10__make_refEm
FNDA:1188,_ZNKSt3__113__vector_baseI6OpcodeNS_9allocatorIS1_EEE7__allocEv
FNDA:0,_ZNSt3__16vectorIbNS_9allocatorIbEEE4swapERS3_
FNDA:337920,_ZNKSt3__16vectorINS_12basic_stringIcNS_11char_traitsIcEENS_9allocatorIcEEEENS4_IS6_EEE31__annotate_contiguous_containerEPKvSA_SA_SA_
FNDA:0,_ZNSt3__16vectorIbNS_9allocatorIbEEEC1Ev
FNDA:0,_ZNSt3__16vectorIhNS_9allocatorIhEEEC2Ev
FNDA:371712,_ZNSt3__113__vector_baseINS_12basic_stringIcNS_11char_traitsIcEENS_9allocatorIcEEEENS4_IS6_EEE9__end_capEv
FNDA:56,_ZNSt3__16vectorIhNS_9allocatorIhEEE18__construct_at_endIPKhEENS_9enable_ifIXsr21__is_forward_iteratorIT_EE5valueEvE4typeES8_S8_m
FNDA:1188,_ZNSt3__16vectorI6OpcodeNS_9allocatorIS1_EEE26__invalidate_all_iteratorsEv
FNDA:0,_ZNSt3__16vectorIbNS_9allocatorIbEEE26__internal_cap_to_externalEm
FNDA:0,_ZNKSt3__16vectorIbNS_9allocatorIbEEE7__allocEv
FNDA:0,_ZNSt3__16vectorIbNS_9allocatorIbEEE6resizeEmb
FNDA:0,_ZNSt3__16vectorIbNS_9allocatorIbEEED1Ev
FNDA:1188,_ZNKSt3__16vectorI6OpcodeNS_9allocatorIS1_EEE8max_sizeEv
FNDA:0,_ZNSt3__16vectorIbNS_9allocatorIbEEE26__external_cap_to_internalEm
FNDA:303,_ZNSt3__16vectorIhNS_9allocatorIhEEED1Ev
FNDA:1188,_ZNKSt3__16vectorI6OpcodeNS_9allocatorIS1_EEE11__recommendEm
FNDA:0,_ZNSt3__16vectorIN5boost2io6detail11format_itemIcNS_11char_traitsIcEENS_9allocatorIcEEEENS7_IS9_EEE6assignEmRKS9_
FNDA:135168,_ZNSt3__16vectorINS_12basic_stringIcNS_11char_traitsIcEENS_9allocatorIcEEEENS4_IS6_EEEixEm
FNDA:0,_ZNKSt3__16vectorIN5boost2io6detail11format_itemIcNS_11char_traitsIcEENS_9allocatorIcEEEENS7_IS9_EEE14__annotate_newEm
FNDA:0,_ZNSt3__16vectorINS_12basic_stringIcNS_11char_traitsIcEENS_9allocatorIcEEEENS4_IS6_EEE11__vallocateEm
FNDA:0,_ZNSt3__16vectorINS_12basic_stringIcNS_11char_traitsIcEENS_9allocatorIcEEEENS4_IS6_EEEC2ERKS8_
FNDA:0,_ZNKSt3__16vectorIN5boost2io6detail11format_itemIcNS_11char_traitsIcEENS_9allocatorIcEEEENS7_IS9_EEE8max_sizeEv
FNDA:0,_ZNSt3__16vectorIN5boost2io6detail11format_itemIcNS_11char_traitsIcEENS_9allocatorIcEEEENS7_IS9_EEE24__RAII_IncreaseAnnotator6__doneEv
FNDA:1208,_ZNKSt3__16vectorIhNS_9allocatorIhEEE8capacityEv
FNDA:1188,_ZNSt3__16vectorI6OpcodeNS_9allocatorIS1_EEE26__swap_out_circular_bufferERNS_14__split_bufferIS1_RS3_EE
FNDA:0,_ZNSt3__16vectorIN5boost2io6detail11format_itemIcNS_11char_traitsIcEENS_9allocatorIcEEEENS7_IS9_EEE6resizeEmRKS9_
FNDA:301,_ZNSt3__113__vector_baseIhNS_9allocatorIhEEE17__destruct_at_endEPh
FNDA:135168,_ZNKSt3__16vectorINS_12basic_stringIcNS_11char_traitsIcEENS_9allocatorIcEEEENS4_IS6_EEE11__recommendEm
FNDA:1509,_ZNKSt3__113__vector_baseIhNS_9allocatorIhEEE9__end_capEv
FNDA:301,_ZNSt3__16vectorIhNS_9allocatorIhEEE11__vallocateEm
FNDA:0,_ZNSt3__16vectorIbNS_9allocatorIbEEE11__make_iterEm
FNDA:0,_ZNSt3__16vectorIN5boost2io6detail11format_itemIcNS_11char_traitsIcEENS_9allocatorIcEEEENS7_IS9_EEE26__swap_out_circular_bufferERNS_14__split_bufferIS9_RSA_EE
FNDA:112,_ZNSt3__16vectorIhNS_9allocatorIhEEE5beginEv
FNDA:0,_ZNKSt3__16vectorIN5boost2io6detail11format_itemIcNS_11char_traitsIcEENS_9allocatorIcEEEENS7_IS9_EEE8capacityEv
FNDA:2640,_ZNKSt3__16vectorI6OpcodeNS_9allocatorIS1_EEE31__annotate_contiguous_containerEPKvS6_S6_S6_
FNDA:1509,_ZNKSt3__113__vector_baseIhNS_9allocatorIhEEE8capacityEv
FNDA:67584,_ZNSt3__16vectorINS_12basic_stringIcNS_11char_traitsIcEENS_9allocatorIcEEEENS4_IS6_EEED1Ev
FNDA:168960,_ZNSt3__16vectorINS_12basic_stringIcNS_11char_traitsIcEENS_9allocatorIcEEEENS4_IS6_EEE4backEv
FNDA:301,_ZNSt3__113__vector_baseIhNS_9allocatorIhEEE5clearEv
FNDA:0,_ZNSt3__16vectorI6OpcodeNS_9allocatorIS1_EEE5clearEv
FNDA:0,_ZNSt3__16vectorIbNS_9allocatorIbEEE7__allocEv
FNDA:135168,_ZNKSt3__16vectorINS_12basic_stringIcNS_11char_traitsIcEENS_9allocatorIcEEEENS4_IS6_EEE8max_sizeEv
FNDA:301,_ZNSt3__113__vector_baseIhNS_9allocatorIhEEED2Ev
FNDA:0,_ZNSt3__16vectorIN5boost2io6detail11format_itemIcNS_11char_traitsIcEENS_9allocatorIcEEEENS7_IS9_EEED2Ev
FNDA:135168,_ZNKSt3__16vectorINS_12basic_stringIcNS_11char_traitsIcEENS_9allocatorIcEEEENS4_IS6_EEE14__annotate_newEm
FNDA:0,_ZNKSt3__16vectorIbNS_9allocatorIbEEE11__make_iterEm
FNDA:0,_ZNSt3__16vectorIbNS_9allocatorIbEEE3endEv
FNDA:264,_ZNSt3__16vectorI6OpcodeNS_9allocatorIS1_EEEC2Ev
FNDA:33792,_ZNSt3__16vectorINS_12basic_stringIcNS_11char_traitsIcEENS_9allocatorIcEEEENS4_IS6_EEEC2Ev
FNDA:264,_ZNSt3__113__vector_baseI6OpcodeNS_9allocatorIS1_EEEC2Ev
FNDA:135168,_ZNSt3__16vectorINS_12basic_stringIcNS_11char_traitsIcEENS_9allocatorIcEEEENS4_IS6_EEE26__swap_out_circular_bufferERNS_14__split_bufferIS6_RS7_EE
FNDA:132,_ZNSt3__113__vector_baseI6OpcodeNS_9allocatorIS1_EEE5clearEv
FNDA:0,_ZNKSt3__16vectorIbNS_9allocatorIbEEE8max_sizeEv
FNDA:0,_ZNSt3__16vectorIbNS_9allocatorIbEEE10__align_itEm
FNDA:0,_ZNSt3__113__vector_baseIN5boost2io6detail11format_itemIcNS_11char_traitsIcEENS_9allocatorIcEEEENS7_IS9_EEEC2Ev
FNDA:0,_ZNKSt3__16vectorIbNS_9allocatorIbEEE4sizeEv
FNDA:0,_ZNSt3__16vectorIbNS_9allocatorIbEEEixEm
FNDA:0,_ZNSt3__16vectorIhNS_9allocatorIhEEEC1Ev
FNDA:0,_ZNSt3__16vectorIN5boost2io6detail11format_itemIcNS_11char_traitsIcEENS_9allocatorIcEEEENS7_IS9_EEEixEm
FNDA:168,_ZNSt3__16vectorIhNS_9allocatorIhEEE11__make_iterEPh
FNDA:0,_ZNSt3__16vectorIhNS_9allocatorIhEEE26__swap_out_circular_bufferERNS_14__split_bufferIhRS2_EE
FNDA:0,_ZNSt3__113__vector_baseIN5boost2io6detail11format_itemIcNS_11char_traitsIcEENS_9allocatorIcEEEENS7_IS9_EEE9__end_capEv
FNDA:0,_ZNSt3__113__vector_baseINS_12basic_stringIcNS_11char_traitsIcEENS_9allocatorIcEEEENS4_IS6_EEEC2EOS7_
FNDA:1188,_ZNKSt3__16vectorI6OpcodeNS_9allocatorIS1_EEE14__annotate_newEm
FNDA:135168,_ZNKSt3__113__vector_baseINS_12basic_stringIcNS_11char_traitsIcEENS_9allocatorIcEEEENS4_IS6_EEE7__allocEv
FNDA:0,_ZNKSt3__16vectorI6OpcodeNS_9allocatorIS1_EEE17__annotate_shrinkEm
FNDA:844800,_ZNKSt3__113__vector_baseINS_12basic_stringIcNS_11char_traitsIcEENS_9allocatorIcEEEENS4_IS6_EEE8capacityEv
FNDA:6600,_ZNKSt3__113__vector_baseI6OpcodeNS_9allocatorIS1_EEE9__end_capEv
FNDA:0,_ZNSt3__16vectorIbNS_9allocatorIbEEE5beginEv
FNDA:168960,_ZNSt3__16vectorINS_12basic_stringIcNS_11char_traitsIcEENS_9allocatorIcEEEENS4_IS6_EEE12emplace_backIJS6_EEERS6_DpOT_
FNDA:8847528,_ZNSt3__16vectorIhNS_9allocatorIhEEE24__RAII_IncreaseAnnotator6__doneEv
FNDA:0,_ZNSt3__16vectorIhNS_9allocatorIhEEE9push_backEOh
FNDA:0,_ZNSt3__16vectorIhNS_9allocatorIhEEE26__invalidate_all_iteratorsEv
FNDA:8847528,_ZNSt3__16vectorIhNS_9allocatorIhEEE24__RAII_IncreaseAnnotatorC2ERKS3_m
FNDA:0,_ZNSt3__16vectorIN5boost2io6detail11format_itemIcNS_11char_traitsIcEENS_9allocatorIcEEEENS7_IS9_EEE5clearEv
FNDA:191,_ZNSt3__113__vector_baseIhNS_9allocatorIhEEEC2Ev
FNDA:35376,_ZNSt3__113__vector_baseI6OpcodeNS_9allocatorIS1_EEE9__end_capEv
FNDA:1452,_ZNKSt3__16vectorI6OpcodeNS_9allocatorIS1_EEE17__annotate_deleteEv
FNDA:0,_ZNSt3__16vectorIN5boost2io6detail11format_itemIcNS_11char_traitsIcEENS_9allocatorIcEEEENS7_IS9_EEE18__construct_at_endEmRKS9_
FNDA:0,_ZNKSt3__16vectorIN5boost2io6detail11format_itemIcNS_11char_traitsIcEENS_9allocatorIcEEEENS7_IS9_EEE4sizeEv
FNDA:0,_ZNSt3__16vectorIN5boost2io6detail11format_itemIcNS_11char_traitsIcEENS_9allocatorIcEEEENS7_IS9_EEE13__vdeallocateEv
FNDA:8847528,_ZNSt3__16vectorIhNS_9allocatorIhEEE24__RAII_IncreaseAnnotatorC1ERKS3_m
FNDA:301,_ZNKSt3__16vectorIhNS_9allocatorIhEEE8max_sizeEv
FNDA:33792,_ZNSt3__16vectorINS_12basic_stringIcNS_11char_traitsIcEENS_9allocatorIcEEEENS4_IS6_EEEC1IN5boost9iterators18transform_iteratorINSA_9algorithm6detail20copy_iterator_rangeFIS6_NS_11__wrap_iterIPcEEEENSD_14split_iteratorISI_EENSA_11use_defaultESM_EEEET_NS_9enable_ifIXaaaasr19__is_input_iteratorISO_EE5valuentsr21__is_forward_iteratorISO_EE5valuesr16is_constructibleIS6_NS_15iterator_traitsISO_E9referenceEEE5valueESO_E4typeE
FNDA:0,_ZNKSt3__16vectorIN5boost2io6detail11format_itemIcNS_11char_traitsIcEENS_9allocatorIcEEEENS7_IS9_EEE11__recommendEm
FNDA:168960,_ZNSt3__16vectorINS_12basic_stringIcNS_11char_traitsIcEENS_9allocatorIcEEEENS4_IS6_EEE14__emplace_backIS6_EEvOT_
FNDA:0,_ZNKSt3__16vectorIbNS_9allocatorIbEEE5__capEv
FNDA:56,_ZNSt3__16vectorIhNS_9allocatorIhEEEC2ESt16initializer_listIhE
FNDA:5016,_ZNKSt3__16vectorI6OpcodeNS_9allocatorIS1_EEE4sizeEv
FNDA:604,_ZNKSt3__16vectorIhNS_9allocatorIhEEE31__annotate_contiguous_containerEPKvS5_S5_S5_
FNDA:1351680,_ZNKSt3__16vectorINS_12basic_stringIcNS_11char_traitsIcEENS_9allocatorIcEEEENS4_IS6_EEE4dataEv
FNDA:0,_ZNSt3__16vectorIN5boost2io6detail11format_itemIcNS_11char_traitsIcEENS_9allocatorIcEEEENS7_IS9_EEE17__destruct_at_endEPS9_
FNDA:68151,_ZNSt3__120__vector_base_commonILb1EEC2Ev
FNDA:421,_ZNSt3__16vectorIhNS_9allocatorIhEEEixEm
FNDA:0,_ZNKSt3__16vectorIbNS_9allocatorIbEEE11__recommendEm
FNDA:307,_ZNSt3__16vectorI6OpcodeNS_9allocatorIS1_EEEixEm
FNDA:0,_ZNKSt3__16vectorIN5boost2io6detail11format_itemIcNS_11char_traitsIcEENS_9allocatorIcEEEENS7_IS9_EEEixEm
FNDA:0,_ZNSt3__16vectorIbNS_9allocatorIbEEEC1ERKS2_
FNDA:0,_ZNSt3__16vectorIhNS_9allocatorIhEEE21__push_back_slow_pathIhEEvOT_
FNDA:415,_ZNKSt3__16vectorIhNS_9allocatorIhEEE4sizeEv
FNDA:0,_ZNKSt3__16vectorIbNS_9allocatorIbEEE6cbeginEv
FNDA:69168,_ZNSt3__113__vector_baseI6OpcodeNS_9allocatorIS1_EEE7__allocEv
FNDA:0,_ZNSt3__16vectorINS_12basic_stringIcNS_11char_traitsIcEENS_9allocatorIcEEEENS4_IS6_EEEC1ERKS8_
FNDA:135168,_ZNSt3__16vectorINS_12basic_stringIcNS_11char_traitsIcEENS_9allocatorIcEEEENS4_IS6_EEE24__emplace_back_slow_pathIJS6_EEEvDpOT_
FNDA:132,_ZNSt3__16vectorI6OpcodeNS_9allocatorIS1_EEE13__vdeallocateEv
FNDA:844800,_ZNKSt3__113__vector_baseINS_12basic_stringIcNS_11char_traitsIcEENS_9allocatorIcEEEENS4_IS6_EEE9__end_capEv
FNDA:0,_ZNSt3__16vectorIN5boost2io6detail11format_itemIcNS_11char_traitsIcEENS_9allocatorIcEEEENS7_IS9_EEE24__RAII_IncreaseAnnotatorC2ERKSB_m
FNDA:135,_ZNSt3__16vectorIhNS_9allocatorIhEEEC2EmRKh
FNDA:132,_ZNSt3__113__vector_baseI6OpcodeNS_9allocatorIS1_EEE19__move_assign_allocERS4_NS_17integral_constantIbLb1EEE
FNDA:2416,_ZNKSt3__16vectorIhNS_9allocatorIhEEE4dataEv
FNDA:132,_ZNSt3__16vectorI6OpcodeNS_9allocatorIS1_EEEaSEOS4_
FNDA:0,_ZNSt3__113__vector_baseIN5boost2io6detail11format_itemIcNS_11char_traitsIcEENS_9allocatorIcEEEENS7_IS9_EEED2Ev
FNDA:112,_ZNSt3__16vectorIhNS_9allocatorIhEEEC1ERKS3_
FNDA:202752,_ZNKSt3__16vectorINS_12basic_stringIcNS_11char_traitsIcEENS_9allocatorIcEEEENS4_IS6_EEE17__annotate_deleteEv
FNDA:0,_ZNKSt3__16vectorIN5boost2io6detail11format_itemIcNS_11char_traitsIcEENS_9allocatorIcEEEENS7_IS9_EEE31__annotate_contiguous_containerEPKvSD_SD_SD_
FNDA:33792,_ZNSt3__113__vector_baseINS_12basic_stringIcNS_11char_traitsIcEENS_9allocatorIcEEEENS4_IS6_EEE5clearEv
FNDA:0,_ZNSt3__16vectorIN5boost2io6detail11format_itemIcNS_11char_traitsIcEENS_9allocatorIcEEEENS7_IS9_EEED1Ev
FNDA:0,_ZNKSt3__113__vector_baseIN5boost2io6detail11format_itemIcNS_11char_traitsIcEENS_9allocatorIcEEEENS7_IS9_EEE9__end_capEv
FNDA:32604,_ZNSt3__16vectorI6OpcodeNS_9allocatorIS1_EEE24__RAII_IncreaseAnnotatorC1ERKS4_m
FNDA:0,_ZNSt3__16vectorIN5boost2io6detail11format_itemIcNS_11char_traitsIcEENS_9allocatorIcEEEENS7_IS9_EEEC1Ev
FNDA:0,_ZNKSt3__16vectorIbNS_9allocatorIbEEE8capacityEv
FNDA:0,_ZNSt3__16vectorIbNS_9allocatorIbEEEC2ERKS2_
FNDA:8717919,_ZNSt3__113__vector_baseIhNS_9allocatorIhEEE7__allocEv
FNDA:301,_ZNKSt3__16vectorIhNS_9allocatorIhEEE14__annotate_newEm
FNDA:811008,_ZNKSt3__16vectorINS_12basic_stringIcNS_11char_traitsIcEENS_9allocatorIcEEEENS4_IS6_EEE8capacityEv
FNDA:33792,_ZNSt3__16vectorINS_12basic_stringIcNS_11char_traitsIcEENS_9allocatorIcEEEENS4_IS6_EEE24__RAII_IncreaseAnnotatorC1ERKS8_m
FNDA:0,_ZNSt3__113__vector_baseIN5boost2io6detail11format_itemIcNS_11char_traitsIcEENS_9allocatorIcEEEENS7_IS9_EEE17__destruct_at_endEPS9_
FNDA:56,_ZNSt3__16vectorIhNS_9allocatorIhEEE3endEv
FNDA:0,_ZNSt3__16vectorIN5boost2io6detail11format_itemIcNS_11char_traitsIcEENS_9allocatorIcEEEENS7_IS9_EEEC2Ev
FNDA:0,_ZNSt3__16vectorIbNS_9allocatorIbEEE26__invalidate_all_iteratorsEv
FNDA:0,_ZNSt3__16vectorIN5boost2io6detail11format_itemIcNS_11char_traitsIcEENS_9allocatorIcEEEENS7_IS9_EEE11__vallocateEm
FNDA:303,_ZNSt3__16vectorIhNS_9allocatorIhEEED2Ev
FNDA:0,_ZNSt3__16vectorIN5boost2io6detail11format_itemIcNS_11char_traitsIcEENS_9allocatorIcEEEENS7_IS9_EEE26__invalidate_all_iteratorsEv
FNDA:33792,_ZNSt3__16vectorINS_12basic_stringIcNS_11char_traitsIcEENS_9allocatorIcEEEENS4_IS6_EEE24__RAII_IncreaseAnnotatorC2ERKS8_m
FNDA:0,_ZNKSt3__16vectorIbNS_9allocatorIbEEE4cendEv
FNDA:0,_ZNSt3__16vectorINS_12basic_stringIcNS_11char_traitsIcEENS_9allocatorIcEEEENS4_IS6_EEE18__construct_at_endIPS6_EENS_9enable_ifIXsr21__is_forward_iteratorIT_EE5valueEvE4typeESC_SC_m
FNDA:135168,_ZNSt3__16vectorINS_12basic_stringIcNS_11char_traitsIcEENS_9allocatorIcEEEENS4_IS6_EEE26__invalidate_all_iteratorsEv
FNDA:112,_ZNSt3__113__vector_baseIhNS_9allocatorIhEEEC2EOS2_
FNDA:0,_ZNSt3__16vectorIbNS_9allocatorIbEEE5__capEv
FNDA:112,_ZNSt3__16vectorIhNS_9allocatorIhEEEC2ERKS3_
FNDA:264,_ZNSt3__16vectorI6OpcodeNS_9allocatorIS1_EEED2Ev
FNDA:0,_ZNSt3__16vectorIN5boost2io6detail11format_itemIcNS_11char_traitsIcEENS_9allocatorIcEEEENS7_IS9_EEE24__RAII_IncreaseAnnotatorC1ERKSB_m
FNDA:135,_ZNSt3__16vectorIhNS_9allocatorIhEEEC1EmRKh
FNDA:10560,_ZNKSt3__16vectorI6OpcodeNS_9allocatorIS1_EEE4dataEv
FNDA:0,_ZNSt3__16vectorIN5boost2io6detail11format_itemIcNS_11char_traitsIcEENS_9allocatorIcEEEENS7_IS9_EEE8__appendEmRKS9_
FNDA:67584,_ZNSt3__113__vector_baseINS_12basic_stringIcNS_11char_traitsIcEENS_9allocatorIcEEEENS4_IS6_EEED2Ev
FNDA:67584,_ZNSt3__16vectorINS_12basic_stringIcNS_11char_traitsIcEENS_9allocatorIcEEEENS4_IS6_EEED2Ev
FNDA:112,_ZNSt3__16vectorIhNS_9allocatorIhEEE18__construct_at_endIPhEENS_9enable_ifIXsr21__is_forward_iteratorIT_EE5valueEvE4typeES7_S7_m
FNDA:0,_ZNSt3__16vectorINS_12basic_stringIcNS_11char_traitsIcEENS_9allocatorIcEEEENS4_IS6_EEE9push_backERKS6_
FNDA:264,_ZNSt3__113__vector_baseI6OpcodeNS_9allocatorIS1_EEED2Ev
FNDA:0,_ZNKSt3__16vectorIhNS_9allocatorIhEEE11__recommendEm
FNDA:132,_ZNSt3__113__vector_baseI6OpcodeNS_9allocatorIS1_EEE17__destruct_at_endEPS1_
FNDA:0,_ZNSt3__16vectorIbNS_9allocatorIbEEE11__vallocateEm
FNDA:0,_ZNSt3__16vectorIbNS_9allocatorIbEEE7reserveEm
FNDA:33792,_ZNSt3__113__vector_baseINS_12basic_stringIcNS_11char_traitsIcEENS_9allocatorIcEEEENS4_IS6_EEE17__destruct_at_endEPS6_
FNDA:33792,_ZNSt3__16vectorINS_12basic_stringIcNS_11char_traitsIcEENS_9allocatorIcEEEENS4_IS6_EEE24__RAII_IncreaseAnnotator6__doneEv
FNF:190
FNH:105
DA:304,68151
DA:348,9361551
DA:349,9361551
DA:351,136769
DA:352,136769
DA:354,407389
DA:355,407389
DA:357,852909
DA:358,852909
DA:361,68039
DA:365,112
DA:370,34225
DA:372,852909
DA:373,852909
DA:384,132
DA:388,132
DA:389,132
DA:408,132
DA:411,132
DA:412,132
DA:423,34225
DA:425,34225
DA:426,8953991
DA:427,8919766
DA:428,34225
DA:429,34225
DA:433,68039
DA:435,68039
DA:436,68039
DA:437,68039
DA:438,68039
DA:439,68039
DA:453,112
DA:454,112
DA:455,112
DA:456,112
DA:460,68149
DA:462,68149
DA:464,34225
DA:465,34225
DA:466,34225
DA:467,68149
DA:496,68112
DA:497,68112
DA:501,68112
DA:518,135
DA:521,33792
DA:550,136302
DA:551,68151
DA:552,68151
DA:556,136302
DA:565,56
DA:656,613687
DA:657,613687
DA:659,818684
DA:660,818684
DA:683,168960
DA:686,168960
DA:698,1364656
DA:699,1364656
DA:707,168960
DA:708,168960
DA:709,168960
DA:770,0
DA:772,0
DA:773,0
DA:774,0
DA:775,0
DA:776,0
DA:830,0
DA:832,0
DA:833,0
DA:834,0
DA:835,0
DA:836,0
DA:862,341164
DA:863,341164
DA:866,136657
DA:867,273314
DA:868,136657
DA:869,136657
DA:872,204507
DA:873,409014
DA:874,204507
DA:875,204507
DA:885,0
DA:887,0
DA:888,0
DA:889,0
DA:910,17827848
DA:911,8913924
DA:935,136356
DA:937,136356
DA:938,136356
DA:939,136356
DA:940,136356
DA:941,136356
DA:942,136356
DA:943,136356
DA:944,136356
DA:945,136356
DA:973,301
DA:975,301
DA:976,0
DA:977,301
DA:978,301
DA:979,301
DA:980,301
DA:984,132
DA:986,132
DA:988,0
DA:989,0
DA:990,0
DA:991,0
DA:992,132
DA:996,136657
DA:998,273314
DA:999,136657
DA:1006,136356
DA:1008,136356
DA:1009,136356
DA:1010,0
DA:1011,136356
DA:1012,136356
DA:1013,0
DA:1014,136356
DA:1015,136356
DA:1046,135
DA:1048,135
DA:1049,135
DA:1051,8847360
DA:1052,8847360
DA:1053,8847360
DA:1054,8847360
DA:1055,8847360
DA:1056,8847360
DA:1057,135
DA:1066,168
DA:1068,168
DA:1069,168
DA:1070,168
DA:1071,168
DA:1072,168
DA:1099,0
DA:1101,0
DA:1102,0
DA:1105,0
DA:1106,0
DA:1107,0
DA:1108,0
DA:1109,0
DA:1110,0
DA:1142,270
DA:1143,270
DA:1147,135
DA:1149,135
DA:1150,135
DA:1151,135
DA:1152,270
DA:1170,67584
DA:1177,67584
DA:1181,202752
DA:1182,168960
DA:1183,67584
DA:1243,224
DA:1244,112
DA:1245,224
DA:1249,112
DA:1250,112
DA:1252,112
DA:1253,112
DA:1254,112
DA:1255,224
DA:1321,112
DA:1322,112
DA:1326,56
DA:1328,56
DA:1329,56
DA:1330,56
DA:1331,112
DA:1351,132
DA:1354,132
DA:1356,132
DA:1375,132
DA:1378,132
DA:1379,132
DA:1380,132
DA:1381,132
DA:1382,132
DA:1383,132
DA:1387,132
DA:1462,0
DA:1464,0
DA:1466,0
DA:1467,0
DA:1468,0
DA:1469,0
DA:1471,0
DA:1472,0
DA:1475,0
DA:1476,0
DA:1477,0
DA:1479,0
DA:1480,0
DA:1485,168
DA:1490,168
DA:1509,112
DA:1511,112
DA:1525,56
DA:1527,56
DA:1541,135896
DA:1544,135896
DA:1550,0
DA:1553,0
DA:1612,1188
DA:1617,1188
DA:1618,1188
DA:1620,1188
DA:1621,1188
DA:1622,1188
DA:1623,1188
DA:1628,33792
DA:1630,33792
DA:1632,32604
DA:1633,65208
DA:1634,32604
DA:1635,32604
DA:1636,32604
DA:1637,32604
DA:1639,1188
DA:1640,33792
DA:1647,0
DA:1649,0
DA:1651,0
DA:1652,0
DA:1653,0
DA:1654,0
DA:1655,0
DA:1656,0
DA:1657,0
DA:1659,0
DA:1660,0
DA:1665,135168
DA:1667,135168
DA:1668,135168
DA:1670,135168
DA:1671,135168
DA:1672,135168
DA:1673,135168
DA:1683,168960
DA:1685,168960
DA:1687,33792
DA:1688,67584
DA:1689,33792
DA:1690,33792
DA:1691,33792
DA:1692,33792
DA:1693,33792
DA:1695,135168
DA:1697,168960
DA:2055,0
DA:2057,0
DA:2058,0
DA:2059,0
DA:2060,0
DA:2061,0
DA:2062,0
DA:2066,33792
DA:2078,33792
DA:2079,33792
DA:2080,33792
DA:2081,33792
DA:2086,33792
DA:2146,136356
DA:2151,136356
DA:2157,0
DA:2173,0
DA:2220,0
DA:2221,0
DA:2223,0
DA:2224,0
DA:2226,0
DA:2227,0
DA:2229,0
DA:2230,0
DA:2235,0
DA:2236,0
DA:2238,0
DA:2239,0
DA:2243,0
DA:2245,0
DA:2328,0
DA:2329,0
DA:2331,0
DA:2332,0
DA:2340,0
DA:2341,0
DA:2346,0
DA:2347,0
DA:2366,0
DA:2367,0
DA:2369,0
DA:2370,0
DA:2378,0
DA:2462,0
DA:2463,0
DA:2475,0
DA:2476,0
DA:2481,0
DA:2482,0
DA:2484,0
DA:2485,0
DA:2541,0
DA:2543,0
DA:2554,0
DA:2556,0
DA:2557,0
DA:2558,0
DA:2559,0
DA:2560,0
DA:2561,0
DA:2562,0
DA:2579,0
DA:2581,0
DA:2582,0
DA:2583,0
DA:2584,0
DA:2585,0
DA:2586,0
DA:2592,0
DA:2594,0
DA:2595,0
DA:2596,0
DA:2597,0
DA:2598,0
DA:2599,0
DA:2600,0
DA:2601,0
DA:2631,0
DA:2633,0
DA:2634,0
DA:2635,0
DA:2637,0
DA:2638,0
DA:2640,0
DA:2641,0
DA:2642,0
DA:2643,0
DA:2647,0
DA:2649,0
DA:2650,0
DA:2651,0
DA:2652,0
DA:2653,0
DA:2657,0
DA:2663,0
DA:2664,0
DA:2665,0
DA:2666,0
DA:2667,0
DA:2842,0
DA:2843,0
DA:2844,0
DA:2845,0
DA:2846,0
DA:2847,0
DA:3034,0
DA:3036,0
DA:3038,0
DA:3039,0
DA:3040,0
DA:3041,0
DA:3042,0
DA:3043,0
DA:3044,0
DA:3248,0
DA:3256,0
DA:3257,0
DA:3258,0
DA:3259,0
DA:3261,0
DA:3265,0
DA:3267,0
DA:3268,0
DA:3270,0
DA:3271,0
DA:3272,0
DA:3273,0
DA:3275,0
DA:3276,0
DA:3277,0
DA:3280,0
DA:3281,0
DA:3282,0
DA:3283,0
DA:3284,0
DA:3285,0
DA:3286,0
DA:3287,0
DA:3289,0
DA:3290,0
LF:401
LH:210
end_of_record
TN:
SF:/Users/sens/dev/intel8080/argparser/src/argparser.c
FN:4,argparser_index_of
FN:16,argparser_new
FN:27,argparser_add
FN:52,argparser_from_struct
FN:64,argparser_take_arg
FN:81,argparser_parse
FN:172,argparser_validate
FN:188,argparser_passed
FN:197,argparser_get
FN:206,argparser_free
FN:223,argparser_usage
FN:262,argparser_dump
FN:285,argparser_option_dump
FNDA:0,argparser_get
FNDA:0,argparser_new
FNDA:0,argparser_parse
FNDA:0,argparser_take_arg
FNDA:0,argparser_usage
FNDA:0,argparser_add
FNDA:0,argparser_validate
FNDA:0,argparser_passed
FNDA:0,argparser_option_dump
FNDA:0,argparser_dump
FNDA:0,argparser_from_struct
FNDA:0,argparser_free
FNDA:0,argparser_index_of
FNF:13
FNH:0
DA:4,0
DA:6,0
DA:8,0
DA:9,0
DA:10,0
DA:11,0
DA:13,0
DA:14,0
DA:16,0
DA:18,0
DA:19,0
DA:20,0
DA:21,0
DA:22,0
DA:23,0
DA:24,0
DA:27,0
DA:35,0
DA:36,0
DA:37,0
DA:38,0
DA:40,0
DA:42,0
DA:43,0
DA:44,0
DA:45,0
DA:46,0
DA:47,0
DA:49,0
DA:50,0
DA:52,0
DA:55,0
DA:56,0
DA:57,0
DA:58,0
DA:59,0
DA:60,0
DA:61,0
DA:62,0
DA:64,0
DA:70,0
DA:71,0
DA:73,0
DA:74,0
DA:75,0
DA:77,0
DA:78,0
DA:79,0
DA:81,0
DA:83,0
DA:85,0
DA:86,0
DA:89,0
DA:92,0
DA:93,0
DA:95,0
DA:97,0
DA:98,0
DA:100,0
DA:102,0
DA:104,0
DA:105,0
DA:108,0
DA:110,0
DA:112,0
DA:113,0
DA:115,0
DA:116,0
DA:117,0
DA:118,0
DA:119,0
DA:120,0
DA:121,0
DA:123,0
DA:126,0
DA:127,0
DA:129,0
DA:131,0
DA:132,0
DA:134,0
DA:135,0
DA:136,0
DA:137,0
DA:139,0
DA:140,0
DA:143,0
DA:144,0
DA:145,0
DA:147,0
DA:148,0
DA:149,0
DA:150,0
DA:152,0
DA:154,0
DA:155,0
DA:157,0
DA:159,0
DA:160,0
DA:161,0
DA:163,0
DA:164,0
DA:166,0
DA:167,0
DA:169,0
DA:172,0
DA:174,0
DA:176,0
DA:178,0
DA:180,0
DA:182,0
DA:183,0
DA:185,0
DA:186,0
DA:188,0
DA:190,0
DA:191,0
DA:192,0
DA:194,0
DA:195,0
DA:197,0
DA:199,0
DA:200,0
DA:201,0
DA:203,0
DA:204,0
DA:206,0
DA:208,0
DA:210,0
DA:211,0
DA:213,0
DA:214,0
DA:216,0
DA:217,0
DA:219,0
DA:220,0
DA:221,0
DA:223,0
DA:225,0
DA:226,0
DA:228,0
DA:230,0
DA:231,0
DA:233,0
DA:234,0
DA:235,0
DA:236,0
DA:238,0
DA:239,0
DA:240,0
DA:241,0
DA:243,0
DA:244,0
DA:245,0
DA:246,0
DA:247,0
DA:248,0
DA:249,0
DA:251,0
DA:253,0
DA:254,0
DA:255,0
DA:256,0
DA:258,0
DA:259,0
DA:260,0
DA:262,0
DA:264,0
DA:265,0
DA:266,0
DA:267,0
DA:269,0
DA:271,0
DA:272,0
DA:273,0
DA:275,0
DA:276,0
DA:278,0
DA:279,0
DA:280,0
DA:281,0
DA:282,0
DA:283,0
DA:285,0
DA:287,0
DA:288,0
DA:289,0
DA:290,0
DA:291,0
DA:292,0
DA:293,0
DA:294,0
DA:295,0
DA:296,0
LF:193
LH:0
end_of_record
TN:
SF:/Users/sens/dev/intel8080/inc/cpu.hh
FN:29,_ZN3CPUD2Ev
FN:29,_ZN3CPUD1Ev
FNDA:135,_ZN3CPUD2Ev
FNDA:135,_ZN3CPUD1Ev
FNF:2
FNH:2
DA:29,270
LF:1
LH:1
end_of_record
TN:
SF:/Users/sens/dev/intel8080/inc/emu.hh
FN:19,_ZN8EmulatorD2Ev
FN:19,_ZN8EmulatorD1Ev
FNDA:132,_ZN8EmulatorD2Ev
FNDA:132,_ZN8EmulatorD1Ev
FNF:2
FNH:2
DA:19,264
LF:1
LH:1
end_of_record
TN:
SF:/Users/sens/dev/intel8080/inc/opcode.hh
FN:12,_ZN6OpcodeD1Ev
FN:12,_ZN6OpcodeC2ERKS_
FN:12,_ZN6OpcodeC2EOS_
FN:12,_ZN6OpcodeD2Ev
FN:12,_ZN6OpcodeC1EOS_
FN:12,_ZN6OpcodeC1ERKS_
FNDA:101551,_ZN6OpcodeD1Ev
FNDA:101551,_ZN6OpcodeD2Ev
FNDA:33660,_ZN6OpcodeC2EOS_
FNDA:34099,_ZN6OpcodeC2ERKS_
FNDA:34099,_ZN6OpcodeC1ERKS_
FNDA:33660,_ZN6OpcodeC1EOS_
FNF:6
FNH:6
DA:12,338620
LF:1
LH:1
end_of_record
TN:
SF:/Users/sens/dev/intel8080/inc/ram.hh
FN:9,_ZN3RAMD1Ev
FN:9,_ZN3RAMD2Ev
FNDA:135,_ZN3RAMD1Ev
FNDA:135,_ZN3RAMD2Ev
FNF:2
FNH:2
DA:9,270
LF:1
LH:1
end_of_record
TN:
SF:/Users/sens/dev/intel8080/src/cpu.cc
FN:4,_ZN3CPU9aux_carryEhh
FN:13,_ZN3CPU11even_parityEh
FN:24,_ZN3CPUC2Ev
FN:24,_ZN3CPUC1Ev
FN:31,_ZN3CPU12load_programENSt3__16vectorIhNS0_9allocatorIhEEEEt
FN:37,_ZN3CPU15get_memory_sizeEv
FN:42,_ZN3CPU10get_opcodeEv
FN:47,_ZN3CPU12get_registerE8Register
FN:64,_ZN3CPU12set_registerE8Registerh
FN:81,_ZN3CPU17get_register_pairE8RegisterS0_
FN:86,_ZN3CPU17set_register_pairE8RegisterS0_t
FN:94,_ZN3CPU8get_imm8Ev
FN:99,_ZN3CPU9get_imm16Ev
FN:104,_ZN3CPU12increment_pcEt
FN:109,_ZN3CPU5storeEth
FN:114,_ZN3CPU4loadEt
FN:119,_ZN3CPU6get_pcEv
FN:124,_ZN3CPU6set_pcEt
FN:129,_ZN3CPU6get_spEv
FN:134,_ZN3CPU6set_spEt
FN:139,_ZN3CPU12increment_spEt
FN:144,_ZN3CPU12decrement_spEt
FN:149,_ZN3CPU8get_flagE4Flag
FN:154,_ZN3CPU8set_flagE4Flagb
FN:165,_ZN3CPU17affect_flags_szapEhh
FN:173,_ZN3CPU4pushEt
FN:180,_ZN3CPU3popEv
FNDA:2,_ZN3CPU6set_spEt
FNDA:59,_ZN3CPU5storeEth
FNDA:21,_ZN3CPU6get_spEv
FNDA:197,_ZN3CPU12set_registerE8Registerh
FNDA:0,_ZN3CPU15get_memory_sizeEv
FNDA:121,_ZN3CPU10get_opcodeEv
FNDA:24,_ZN3CPU9get_imm16Ev
FNDA:17,_ZN3CPU4pushEt
FNDA:24,_ZN3CPU17get_register_pairE8RegisterS0_
FNDA:5,_ZN3CPU12increment_spEt
FNDA:56,_ZN3CPU12load_programENSt3__16vectorIhNS0_9allocatorIhEEEEt
FNDA:88,_ZN3CPU17affect_flags_szapEhh
FNDA:17,_ZN3CPU6get_pcEv
FNDA:5,_ZN3CPU3popEv
FNDA:16,_ZN3CPU8get_imm8Ev
FNDA:5,_ZN3CPU12decrement_spEt
FNDA:176,_ZN3CPU9aux_carryEhh
FNDA:30,_ZN3CPU6set_pcEt
FNDA:518,_ZN3CPU8set_flagE4Flagb
FNDA:481,_ZN3CPU8get_flagE4Flag
FNDA:277,_ZN3CPU12increment_pcEt
FNDA:288,_ZN3CPU12get_registerE8Register
FNDA:50,_ZN3CPU4loadEt
FNDA:133,_ZN3CPUC2Ev
FNDA:133,_ZN3CPUC1Ev
FNDA:176,_ZN3CPU11even_parityEh
FNDA:15,_ZN3CPU17set_register_pairE8RegisterS0_t
FNF:27
FNH:26
DA:4,176
DA:6,176
DA:7,176
DA:8,176
DA:9,176
DA:10,176
DA:13,176
DA:15,176
DA:16,1584
DA:18,1408
DA:19,1408
DA:20,1408
DA:21,176
DA:24,266
DA:25,133
DA:26,133
DA:27,133
DA:28,133
DA:29,266
DA:31,56
DA:33,56
DA:34,56
DA:35,56
DA:37,0
DA:39,0
DA:42,121
DA:44,121
DA:47,288
DA:49,288
DA:51,100
DA:52,25
DA:53,25
DA:54,26
DA:55,26
DA:56,35
DA:57,35
DA:58,15
DA:59,1
DA:60,0
DA:62,288
DA:64,197
DA:66,197
DA:68,83
DA:69,15
DA:70,15
DA:71,16
DA:72,16
DA:73,22
DA:74,22
DA:75,7
DA:76,1
DA:77,0
DA:79,197
DA:81,24
DA:83,24
DA:86,15
DA:88,15
DA:89,15
DA:90,15
DA:91,15
DA:92,15
DA:94,16
DA:96,16
DA:99,24
DA:101,24
DA:104,277
DA:106,277
DA:107,277
DA:109,59
DA:111,59
DA:112,59
DA:114,50
DA:116,50
DA:119,17
DA:121,17
DA:124,30
DA:126,30
DA:127,30
DA:129,21
DA:131,21
DA:134,2
DA:136,2
DA:137,2
DA:139,5
DA:141,5
DA:142,5
DA:144,5
DA:146,5
DA:147,5
DA:149,481
DA:151,481
DA:154,518
DA:156,518
DA:158,518
DA:159,211
DA:161,307
DA:162,518
DA:163,518
DA:165,88
DA:167,88
DA:168,88
DA:169,88
DA:170,88
DA:171,88
DA:173,17
DA:175,17
DA:176,17
DA:177,17
DA:178,17
DA:180,5
DA:182,5
DA:183,5
LF:112
LH:108
end_of_record
TN:
SF:/Users/sens/dev/intel8080/src/emu.cc
FN:4,__cxx_global_var_init.3
FN:6,_ZN8EmulatorC2Ev
FN:6,_ZN8EmulatorC1Ev
FN:15,_ZN8Emulator12load_programENSt3__16vectorIhNS0_9allocatorIhEEEEt
FN:20,_ZN8Emulator7executeEv
FN:30,_ZN8Emulator8dump_gprEv
FN:45,_ZN8Emulator20dump_state_registersEv
FN:59,_ZN8Emulator21set_verbose_executionEb
FN:64,_ZN8Emulator14execute_opcodeEh
FN:362,_ZN8Emulator3nopEv
FN:364,_ZN8Emulator3lxiE8RegisterS0_
FN:369,_ZN8Emulator3lxiE8Register
FN:375,_ZN8Emulator4staxE8RegisterS0_
FN:381,_ZN8Emulator3inxE8RegisterS0_
FN:387,_ZN8Emulator3inxE8Register
FN:393,_ZN8Emulator3inrE8Register
FN:413,_ZN8Emulator3dcrE8Register
FN:433,_ZN8Emulator3mviE8Register
FN:445,_ZN8Emulator3rlcEv
FN:454,_ZN8Emulator3dadE8RegisterS0_S0_S0_
FN:465,_ZN8Emulator3dadE8RegisterS0_S0_
FN:478,_ZN8Emulator4ldaxE8RegisterS0_
FN:484,_ZN8Emulator3dcxE8RegisterS0_
FN:490,_ZN8Emulator3dcxE8Register
FN:496,_ZN8Emulator3rrcEv
FN:505,_ZN8Emulator3ralEv
FN:515,_ZN8Emulator3rarEv
FN:525,_ZN8Emulator4shldEv
FN:532,_ZN8Emulator4lhldEv
FN:539,_ZN8Emulator3cmaEv
FN:544,_ZN8Emulator3staEv
FN:550,_ZN8Emulator3ldaEv
FN:556,_ZN8Emulator3movE8RegisterS0_
FN:561,_ZN8Emulator3addE8Register
FN:571,_ZN8Emulator3adcE8Register
FN:582,_ZN8Emulator3subE8Register
FN:592,_ZN8Emulator3sbbE8Register
FN:603,_ZN8Emulator3anaE8Register
FN:613,_ZN8Emulator3xraE8Register
FN:623,_ZN8Emulator3oraE8Register
FN:633,_ZN8Emulator3cmpE8Register
FN:642,_ZN8Emulator3cmcEv
FN:647,_ZN8Emulator3stcEv
FN:652,_ZN8Emulator4callEb
FN:664,_ZN8Emulator3retEb
FN:676,_ZN8Emulator3jmpEb
FN:687,_ZN8Emulator3rstEh
FN:693,_ZN8Emulator3aciEv
FN:702,_ZN8Emulator3adiEv
FN:711,_ZN8Emulator4pushE8RegisterS0_
FN:718,_ZN8Emulator3popE8RegisterS0_
FN:725,_ZN8Emulator3suiEv
FN:734,_ZN8Emulator3sbiEv
FN:743,_ZN8Emulator4xthlEv
FN:756,_ZN8Emulator3aniEv
FN:765,_ZN8Emulator4pchlEv
FN:770,_ZN8Emulator3xriEv
FN:779,_ZN8Emulator4xchgEv
FN:787,_ZN8Emulator3oriEv
FN:796,_ZN8Emulator4sphlEv
FN:801,_ZN8Emulator3cpiEv
FN:809,_ZN8Emulator3outEv
FNDA:1,_ZN8Emulator4sphlEv
FNDA:1,_ZN8Emulator3dadE8RegisterS0_S0_
FNDA:1,_ZN8Emulator3adiEv
FNDA:1,_ZN8Emulator3cmaEv
FNDA:1,_ZN8Emulator3ldaEv
FNDA:8,_ZN8Emulator3inrE8Register
FNDA:1,_ZN8Emulator3rlcEv
FNDA:1,_ZN8Emulator3aniEv
FNDA:0,_ZN8Emulator8dump_gprEv
FNDA:8,_ZN8Emulator3addE8Register
FNDA:4,_ZN8Emulator4pushE8RegisterS0_
FNDA:10,_ZN8Emulator3retEb
FNDA:1,_ZN8Emulator3rrcEv
FNDA:8,_ZN8Emulator3subE8Register
FNDA:1,_ZN8Emulator4xthlEv
FNDA:8,_ZN8Emulator3anaE8Register
FNDA:2,_ZN8Emulator4staxE8RegisterS0_
FNDA:0,_ZN8Emulator3outEv
FNDA:1,_ZN8Emulator3stcEv
FNDA:4,_ZN8Emulator3popE8RegisterS0_
FNDA:136,__cxx_global_var_init.3
FNDA:10,_ZN8Emulator3jmpEb
FNDA:0,_ZN8Emulator20dump_state_registersEv
FNDA:1,_ZN8Emulator4lhldEv
FNDA:12,_ZN8Emulator4callEb
FNDA:8,_ZN8Emulator3rstEh
FNDA:3,_ZN8Emulator3inxE8RegisterS0_
FNDA:1,_ZN8Emulator3inxE8Register
FNDA:0,_ZN8Emulator21set_verbose_executionEb
FNDA:1,_ZN8Emulator3suiEv
FNDA:8,_ZN8Emulator3adcE8Register
FNDA:1,_ZN8Emulator3oriEv
FNDA:1,_ZN8Emulator4xchgEv
FNDA:8,_ZN8Emulator3xraE8Register
FNDA:1,_ZN8Emulator4pchlEv
FNDA:1,_ZN8Emulator3aciEv
FNDA:9,_ZN8Emulator3nopEv
FNDA:1,_ZN8Emulator3cmcEv
FNDA:2,_ZN8Emulator4ldaxE8RegisterS0_
FNDA:1,_ZN8Emulator4shldEv
FNDA:8,_ZN8Emulator3mviE8Register
FNDA:63,_ZN8Emulator3movE8RegisterS0_
FNDA:8,_ZN8Emulator3oraE8Register
FNDA:3,_ZN8Emulator3dadE8RegisterS0_S0_S0_
FNDA:132,_ZN8EmulatorC2Ev
FNDA:1,_ZN8Emulator3lxiE8Register
FNDA:132,_ZN8EmulatorC1Ev
FNDA:307,_ZN8Emulator14execute_opcodeEh
FNDA:56,_ZN8Emulator12load_programENSt3__16vectorIhNS0_9allocatorIhEEEEt
FNDA:1,_ZN8Emulator3staEv
FNDA:3,_ZN8Emulator3lxiE8RegisterS0_
FNDA:3,_ZN8Emulator3dcxE8RegisterS0_
FNDA:1,_ZN8Emulator3sbiEv
FNDA:1,_ZN8Emulator3xriEv
FNDA:1,_ZN8Emulator3rarEv
FNDA:8,_ZN8Emulator3dcrE8Register
FNDA:121,_ZN8Emulator7executeEv
FNDA:1,_ZN8Emulator3ralEv
FNDA:1,_ZN8Emulator3cpiEv
FNDA:1,_ZN8Emulator3dcxE8Register
FNDA:8,_ZN8Emulator3cmpE8Register
FNDA:8,_ZN8Emulator3sbbE8Register
FNF:62
FNH:58
DA:4,136
DA:6,264
DA:7,132
DA:8,132
DA:9,132
DA:10,132
DA:11,132
DA:12,132
DA:13,264
DA:15,56
DA:17,56
DA:18,56
DA:20,121
DA:22,121
DA:23,121
DA:24,121
DA:26,121
DA:27,65
DA:28,121
DA:30,0
DA:32,0
DA:34,0
DA:35,0
DA:36,0
DA:37,0
DA:38,0
DA:39,0
DA:40,0
DA:42,0
DA:43,0
DA:45,0
DA:47,0
DA:49,0
DA:50,0
DA:51,0
DA:52,0
DA:54,0
DA:56,0
DA:57,0
DA:59,0
DA:61,0
DA:62,0
DA:64,307
DA:66,307
DA:68,307
DA:70,0
DA:71,0
DA:72,0
DA:73,0
DA:74,0
DA:76,307
DA:78,307
DA:88,9
DA:89,9
DA:91,1
DA:92,1
DA:93,1
DA:94,1
DA:95,1
DA:96,1
DA:97,1
DA:98,1
DA:99,1
DA:100,1
DA:101,1
DA:102,1
DA:103,1
DA:104,1
DA:106,1
DA:107,1
DA:108,1
DA:109,1
DA:110,1
DA:111,1
DA:112,1
DA:113,1
DA:114,1
DA:115,1
DA:116,1
DA:117,1
DA:118,1
DA:119,1
DA:121,1
DA:122,1
DA:123,1
DA:124,1
DA:125,1
DA:126,1
DA:128,1
DA:129,1
DA:130,1
DA:131,1
DA:132,1
DA:133,1
DA:134,1
DA:136,1
DA:137,1
DA:138,1
DA:139,1
DA:140,1
DA:141,1
DA:142,1
DA:143,1
DA:144,1
DA:145,1
DA:146,1
DA:147,1
DA:148,1
DA:149,1
DA:151,1
DA:152,1
DA:153,1
DA:154,1
DA:155,1
DA:156,1
DA:157,1
DA:158,1
DA:159,1
DA:160,1
DA:161,1
DA:162,1
DA:163,1
DA:164,1
DA:165,1
DA:166,1
DA:168,1
DA:169,1
DA:170,1
DA:171,1
DA:172,1
DA:173,1
DA:174,1
DA:175,1
DA:176,1
DA:177,1
DA:178,1
DA:179,1
DA:180,1
DA:181,1
DA:182,1
DA:183,1
DA:185,1
DA:186,1
DA:187,1
DA:188,1
DA:189,1
DA:190,1
DA:191,1
DA:192,1
DA:193,1
DA:194,1
DA:195,1
DA:196,1
DA:197,1
DA:198,1
DA:199,1
DA:200,1
DA:202,1
DA:203,1
DA:204,1
DA:205,1
DA:206,1
DA:207,1
DA:208,56
DA:209,1
DA:210,1
DA:211,1
DA:212,1
DA:213,1
DA:214,1
DA:215,1
DA:216,1
DA:217,1
DA:219,1
DA:220,1
DA:221,1
DA:222,1
DA:223,1
DA:224,1
DA:225,1
DA:226,1
DA:227,1
DA:228,1
DA:229,1
DA:230,1
DA:231,1
DA:232,1
DA:233,1
DA:234,1
DA:236,1
DA:237,1
DA:238,1
DA:239,1
DA:240,1
DA:241,1
DA:242,1
DA:243,1
DA:244,1
DA:245,1
DA:246,1
DA:247,1
DA:248,1
DA:249,1
DA:250,1
DA:251,1
DA:253,1
DA:254,1
DA:255,1
DA:256,1
DA:257,1
DA:258,1
DA:259,1
DA:260,1
DA:261,1
DA:262,1
DA:263,1
DA:264,1
DA:265,1
DA:266,1
DA:267,1
DA:268,1
DA:270,1
DA:271,1
DA:272,1
DA:273,1
DA:274,1
DA:275,1
DA:276,1
DA:277,1
DA:278,1
DA:279,1
DA:280,1
DA:281,1
DA:282,1
DA:283,1
DA:284,1
DA:285,1
DA:287,1
DA:288,1
DA:289,1
DA:290,1
DA:291,1
DA:292,1
DA:293,1
DA:294,1
DA:295,1
DA:296,1
DA:297,1
DA:298,1
DA:299,1
DA:300,1
DA:301,1
DA:302,1
DA:304,1
DA:305,1
DA:306,1
DA:307,0
DA:308,1
DA:309,1
DA:310,1
DA:311,1
DA:312,1
DA:313,1
DA:314,1
DA:316,1
DA:317,1
DA:318,1
DA:319,1
DA:321,1
DA:322,1
DA:323,1
DA:324,1
DA:325,1
DA:326,1
DA:327,1
DA:328,1
DA:329,1
DA:330,1
DA:331,1
DA:332,1
DA:333,1
DA:334,1
DA:335,1
DA:336,1
DA:338,1
DA:339,1
DA:340,1
DA:342,1
DA:343,1
DA:344,1
DA:345,1
DA:346,1
DA:347,1
DA:348,1
DA:350,1
DA:351,1
DA:352,1
DA:353,1
DA:355,0
DA:358,307
DA:359,277
DA:360,307
DA:362,9
DA:364,3
DA:366,3
DA:367,3
DA:369,1
DA:371,1
DA:372,1
DA:373,1
DA:375,2
DA:377,2
DA:378,2
DA:379,2
DA:381,3
DA:383,3
DA:384,3
DA:385,3
DA:387,1
DA:389,1
DA:390,1
DA:391,1
DA:393,8
DA:397,8
DA:399,1
DA:400,1
DA:401,1
DA:402,1
DA:403,1
DA:404,1
DA:407,7
DA:408,7
DA:409,7
DA:410,7
DA:411,8
DA:413,8
DA:417,8
DA:419,1
DA:420,1
DA:421,1
DA:422,1
DA:423,1
DA:424,1
DA:427,7
DA:428,7
DA:429,7
DA:430,7
DA:431,8
DA:433,8
DA:435,8
DA:437,1
DA:438,1
DA:439,1
DA:442,7
DA:443,8
DA:445,1
DA:447,1
DA:448,1
DA:449,1
DA:450,1
DA:451,1
DA:452,1
DA:454,3
DA:457,3
DA:458,3
DA:459,3
DA:461,3
DA:462,3
DA:463,3
DA:465,1
DA:468,1
DA:470,1
DA:471,1
DA:472,1
DA:473,1
DA:474,1
DA:475,1
DA:476,1
DA:478,2
DA:480,2
DA:481,2
DA:482,2
DA:484,3
DA:486,3
DA:487,3
DA:488,3
DA:490,1
DA:492,1
DA:493,1
DA:494,1
DA:496,1
DA:498,1
DA:499,1
DA:500,1
DA:501,1
DA:502,1
DA:503,1
DA:505,1
DA:507,1
DA:508,1
DA:509,1
DA:510,1
DA:511,1
DA:512,1
DA:513,1
DA:515,1
DA:517,1
DA:518,1
DA:519,1
DA:520,1
DA:521,1
DA:522,1
DA:523,1
DA:525,1
DA:527,1
DA:528,1
DA:529,1
DA:530,1
DA:532,1
DA:534,1
DA:535,1
DA:536,1
DA:537,1
DA:539,1
DA:541,1
DA:542,1
DA:544,1
DA:546,1
DA:547,1
DA:548,1
DA:550,1
DA:552,1
DA:553,1
DA:554,1
DA:556,63
DA:558,63
DA:559,63
DA:561,8
DA:563,8
DA:564,8
DA:565,8
DA:566,8
DA:567,8
DA:568,8
DA:569,8
DA:571,8
DA:573,8
DA:574,8
DA:575,8
DA:576,8
DA:577,8
DA:578,8
DA:579,8
DA:580,8
DA:582,8
DA:584,8
DA:585,8
DA:586,8
DA:587,8
DA:588,8
DA:589,8
DA:590,8
DA:592,8
DA:594,8
DA:595,8
DA:596,8
DA:597,8
DA:598,8
DA:599,8
DA:600,8
DA:601,8
DA:603,8
DA:605,8
DA:606,8
DA:607,8
DA:608,8
DA:609,8
DA:610,8
DA:611,8
DA:613,8
DA:615,8
DA:616,8
DA:617,8
DA:618,8
DA:619,8
DA:620,8
DA:621,8
DA:623,8
DA:625,8
DA:626,8
DA:627,8
DA:628,8
DA:629,8
DA:630,8
DA:631,8
DA:633,8
DA:635,8
DA:636,8
DA:637,8
DA:638,8
DA:639,8
DA:640,8
DA:642,1
DA:644,1
DA:645,1
DA:647,1
DA:649,1
DA:650,1
DA:652,12
DA:654,12
DA:656,9
DA:657,9
DA:658,9
DA:661,3
DA:662,12
DA:664,10
DA:666,10
DA:668,5
DA:669,5
DA:670,5
DA:673,5
DA:674,10
DA:676,10
DA:678,10
DA:680,7
DA:681,7
DA:684,3
DA:685,10
DA:687,8
DA:689,8
DA:690,8
DA:691,8
DA:693,1
DA:695,1
DA:696,1
DA:697,1
DA:698,1
DA:699,1
DA:700,1
DA:702,1
DA:704,1
DA:705,1
DA:706,1
DA:707,1
DA:708,1
DA:709,1
DA:711,4
DA:713,4
DA:714,4
DA:715,4
DA:716,4
DA:718,4
DA:720,4
DA:721,4
DA:722,4
DA:723,4
DA:725,1
DA:727,1
DA:728,1
DA:729,1
DA:730,1
DA:731,1
DA:732,1
DA:734,1
DA:736,1
DA:737,1
DA:738,1
DA:739,1
DA:740,1
DA:741,1
DA:743,1
DA:745,1
DA:746,1
DA:747,1
DA:748,1
DA:750,1
DA:751,1
DA:752,1
DA:753,1
DA:754,1
DA:756,1
DA:758,1
DA:759,1
DA:760,1
DA:761,1
DA:762,1
DA:763,1
DA:765,1
DA:767,1
DA:768,1
DA:770,1
DA:772,1
DA:773,1
DA:774,1
DA:775,1
DA:776,1
DA:777,1
DA:779,1
DA:781,1
DA:782,1
DA:783,1
DA:784,1
DA:785,1
DA:787,1
DA:789,1
DA:790,1
DA:791,1
DA:792,1
DA:793,1
DA:794,1
DA:796,1
DA:798,1
DA:799,1
DA:801,1
DA:803,1
DA:804,1
DA:805,1
DA:806,1
DA:807,1
DA:809,0
DA:811,0
DA:812,0
LF:622
LH:589
end_of_record
TN:
SF:/Users/sens/dev/intel8080/src/file_loader.cc
FN:4,_ZN10FileLoaderC1ENSt3__112basic_stringIcNS0_11char_traitsIcEENS0_9allocatorIcEEEE
FN:4,_ZN10FileLoaderC2ENSt3__112basic_stringIcNS0_11char_traitsIcEENS0_9allocatorIcEEEE
FN:6,_ZN10FileLoader8load_hexEv
FN:89,_ZN10FileLoader8load_binEv
FN:100,_ZN10FileLoader9load_textEv
FN:111,_ZN10FileLoader10get_binaryEv
FN:116,_ZN10FileLoader8get_textEv
FNDA:0,_ZN10FileLoader8load_hexEv
FNDA:0,_ZN10FileLoader9load_textEv
FNDA:0,_ZN10FileLoaderC1ENSt3__112basic_stringIcNS0_11char_traitsIcEENS0_9allocatorIcEEEE
FNDA:0,_ZN10FileLoader10get_binaryEv
FNDA:0,_ZN10FileLoader8load_binEv
FNDA:0,_ZN10FileLoaderC2ENSt3__112basic_stringIcNS0_11char_traitsIcEENS0_9allocatorIcEEEE
FNDA:0,_ZN10FileLoader8get_textEv
FNF:7
FNH:0
DA:4,0
DA:6,0
DA:8,0
DA:9,0
DA:11,0
DA:12,0
DA:14,0
DA:15,0
DA:17,0
DA:18,0
DA:19,0
DA:22,0
DA:25,0
DA:26,0
DA:27,0
DA:30,0
DA:31,0
DA:33,0
DA:35,0
DA:36,0
DA:39,0
DA:42,0
DA:43,0
DA:46,0
DA:47,0
DA:49,0
DA:51,0
DA:53,0
DA:55,0
DA:59,0
DA:60,0
DA:61,0
DA:64,0
DA:65,0
DA:67,0
DA:70,0
DA:71,0
DA:73,0
DA:74,0
DA:75,0
DA:76,0
DA:78,0
DA:82,0
DA:83,0
DA:84,0
DA:86,0
DA:87,0
DA:89,0
DA:91,0
DA:94,0
DA:96,0
DA:98,0
DA:100,0
DA:102,0
DA:103,0
DA:105,0
DA:107,0
DA:109,0
DA:111,0
DA:113,0
DA:116,0
DA:118,0
LF:62
LH:0
end_of_record
TN:
SF:/Users/sens/dev/intel8080/src/interpreter.cc
FN:4,_ZN11InterpreterC2Ev
FN:4,_ZN11InterpreterC1Ev
FN:6,_ZN11Interpreter10parse_lineENSt3__112basic_stringIcNS0_11char_traitsIcEENS0_9allocatorIcEEEE
FN:18,_ZN11Interpreter9main_loopEv
FNDA:0,_ZN11InterpreterC1Ev
FNDA:0,_ZN11Interpreter10parse_lineENSt3__112basic_stringIcNS0_11char_traitsIcEENS0_9allocatorIcEEEE
FNDA:0,_ZN11InterpreterC2Ev
FNDA:0,_ZN11Interpreter9main_loopEv
FNF:4
FNH:0
DA:4,0
DA:6,0
DA:8,0
DA:9,0
DA:11,0
DA:13,0
DA:14,0
DA:15,0
DA:16,0
DA:18,0
DA:20,0
DA:21,0
DA:23,0
DA:25,0
DA:26,0
DA:29,0
LF:16
LH:0
end_of_record
TN:
SF:/Users/sens/dev/intel8080/src/opcode.cc
FN:4,_ZN6OpcodeC2EhhhNSt3__112basic_stringIcNS0_11char_traitsIcEENS0_9allocatorIcEEEES6_
FN:4,_ZN6OpcodeC1EhhhNSt3__112basic_stringIcNS0_11char_traitsIcEENS0_9allocatorIcEEEES6_
FN:19,_Z12load_opcodesNSt3__112basic_stringIcNS_11char_traitsIcEENS_9allocatorIcEEEE
FNDA:33792,_ZN6OpcodeC1EhhhNSt3__112basic_stringIcNS0_11char_traitsIcEENS0_9allocatorIcEEEES6_
FNDA:33792,_ZN6OpcodeC2EhhhNSt3__112basic_stringIcNS0_11char_traitsIcEENS0_9allocatorIcEEEES6_
FNDA:132,_Z12load_opcodesNSt3__112basic_stringIcNS_11char_traitsIcEENS_9allocatorIcEEEE
FNF:3
FNH:3
DA:4,67584
DA:11,33792
DA:12,33792
DA:13,33792
DA:14,33792
DA:15,33792
DA:16,33792
DA:17,67584
DA:19,132
DA:21,132
DA:22,132
DA:23,132
DA:25,0
DA:26,0
DA:29,132
DA:30,132
DA:31,132
DA:32,36036
DA:34,35904
DA:36,33792
DA:37,33792
DA:39,33792
DA:40,33792
DA:41,33792
DA:42,33792
DA:43,33792
DA:45,33792
DA:46,33792
DA:48,33792
DA:49,33792
DA:51,33792
DA:52,33792
DA:55,132
DA:56,132
LF:34
LH:32
end_of_record
TN:
SF:/Users/sens/dev/intel8080/src/ram.cc
FN:4,_ZN3RAMC1Ev
FN:4,_ZN3RAMC2Ev
FN:6,_ZN3RAM8get_sizeEv
FN:11,_ZN3RAM10set_valuesENSt3__16vectorIhNS0_9allocatorIhEEEEt
FN:16,_ZN3RAM3getEt
FN:21,_ZN3RAM3setEth
FNDA:235,_ZN3RAM3getEt
FNDA:0,_ZN3RAM8get_sizeEv
FNDA:135,_ZN3RAMC2Ev
FNDA:59,_ZN3RAM3setEth
FNDA:56,_ZN3RAM10set_valuesENSt3__16vectorIhNS0_9allocatorIhEEEEt
FNDA:135,_ZN3RAMC1Ev
FNF:6
FNH:5
DA:4,270
DA:6,0
DA:8,0
DA:11,56
DA:13,56
DA:14,56
DA:16,235
DA:18,235
DA:21,59
DA:23,59
DA:24,59
LF:11
LH:9
end_of_record
TN:
SF:/Users/sens/dev/intel8080/tests/inc/test.hh
FN:26,_ZN6Rand16C2Ev
FN:26,_ZN6Rand16C1Ev
FN:30,_ZN6Rand163to8Ev
FNDA:381,_ZN6Rand16C1Ev
FNDA:381,_ZN6Rand16C2Ev
FNDA:154,_ZN6Rand163to8Ev
FNF:3
FNH:3
DA:26,762
DA:27,381
DA:28,762
DA:30,154
DA:32,154
LF:5
LH:5
end_of_record
TN:
SF:/Users/sens/dev/intel8080/tests/inc/test_cpu.hh
FN:12,__cxx_global_var_init.6
FNDA:136,__cxx_global_var_init.6
FNF:1
FNH:1
DA:12,136
LF:1
LH:1
end_of_record
TN:
SF:/Users/sens/dev/intel8080/tests/src/test.cc
FN:3,__cxx_global_var_init.6
FN:6,__cxx_global_var_init.8
FN:6,__cxx_global_var_init.7
FN:10,_Z7randintii
FN:16,_Z5rand8v
FNDA:671,_Z7randintii
FNDA:136,__cxx_global_var_init.6
FNDA:136,__cxx_global_var_init.7
FNDA:207,_Z5rand8v
FNDA:136,__cxx_global_var_init.8
FNF:5
FNH:5
DA:3,136
DA:6,272
DA:10,671
DA:12,671
DA:13,671
DA:14,0
DA:16,207
DA:18,207
LF:8
LH:7
end_of_record
TN:
SF:/Users/sens/dev/intel8080/tests/src/test_cpu.cc
FN:4,_Z13test_cpu_initv
FN:9,_Z13test_cpu_finiv
FN:14,__cxx_global_var_init.7
FN:14,_ZNK3$_0clEv
FN:14,_ZL26cpu_cpu_initialization_jmpv
FN:14,cpu_cpu_initialization_impl
FN:27,__cxx_global_var_init.21
FN:27,_ZL16cpu_set_flag_jmpv
FN:27,cpu_set_flag_impl
FN:27,_ZNK3$_1clEv
FN:69,_ZL16cpu_get_flag_jmpv
FN:69,__cxx_global_var_init.28
FN:69,_ZNK3$_2clEv
FN:69,cpu_get_flag_impl
FNDA:136,__cxx_global_var_init.7
FNDA:136,_ZNK3$_0clEv
FNDA:136,__cxx_global_var_init.21
FNDA:3,_Z13test_cpu_initv
FNDA:1,_ZL16cpu_get_flag_jmpv
FNDA:136,__cxx_global_var_init.28
FNDA:1,cpu_set_flag_impl
FNDA:1,_ZL26cpu_cpu_initialization_jmpv
FNDA:1,_ZL16cpu_set_flag_jmpv
FNDA:1,cpu_cpu_initialization_impl
FNDA:136,_ZNK3$_2clEv
FNDA:1,cpu_get_flag_impl
FNDA:136,_ZNK3$_1clEv
FNDA:3,_Z13test_cpu_finiv
FNF:14
FNH:14
DA:4,3
DA:6,3
DA:7,3
DA:9,3
DA:11,3
DA:12,3
DA:14,274
DA:16,1
DA:17,1
DA:18,1
DA:19,1
DA:20,1
DA:21,1
DA:22,1
DA:23,1
DA:24,1
DA:25,1
DA:27,274
DA:29,1
DA:30,1
DA:31,1
DA:32,1
DA:34,1
DA:35,1
DA:36,1
DA:37,1
DA:39,1
DA:40,1
DA:41,1
DA:42,1
DA:44,1
DA:45,1
DA:46,1
DA:47,1
DA:49,1
DA:50,1
DA:51,1
DA:52,1
DA:54,1
DA:55,1
DA:56,1
DA:57,1
DA:59,1
DA:60,1
DA:61,1
DA:63,1
DA:64,1
DA:65,1
DA:66,1
DA:67,1
DA:69,274
DA:71,1
DA:72,1
DA:73,1
DA:74,1
DA:75,1
DA:76,1
DA:77,1
DA:78,1
DA:79,1
DA:80,1
LF:61
LH:61
end_of_record
TN:
SF:/Users/sens/dev/intel8080/tests/src/test_opcodes_0x0x.cc
FN:6,_Z14test_0x0x_initv
FN:11,_Z14test_0x0x_finiv
FN:16,_ZNK3$_0clEv
FN:16,opcode_0x00_nop_impl
FN:16,_ZL19opcode_0x00_nop_jmpv
FN:16,__cxx_global_var_init.6
FN:21,_ZNK3$_1clEv
FN:21,__cxx_global_var_init.12
FN:21,opcode_0x01_lxi_bc_impl
FN:21,_ZL22opcode_0x01_lxi_bc_jmpv
FN:31,_ZL22opcode_0x02_stax_b_jmpv
FN:31,_ZNK3$_2clEv
FN:31,__cxx_global_var_init.16
FN:31,opcode_0x02_stax_b_impl
FN:43,__cxx_global_var_init.19
FN:43,opcode_0x03_inx_bc_impl
FN:43,_ZNK3$_3clEv
FN:43,_ZL22opcode_0x03_inx_bc_jmpv
FN:55,__cxx_global_var_init.21
FN:55,_ZL21opcode_0x04_inr_b_jmpv
FN:55,_ZNK3$_4clEv
FN:55,opcode_0x04_inr_b_impl
FN:65,_ZL21opcode_0x05_dcr_b_jmpv
FN:65,__cxx_global_var_init.28
FN:65,_ZNK3$_5clEv
FN:65,opcode_0x05_dcr_b_impl
FN:75,__cxx_global_var_init.30
FN:75,opcode_0x06_mvi_b_impl
FN:75,_ZNK3$_6clEv
FN:75,_ZL21opcode_0x06_mvi_b_jmpv
FN:83,_ZNK3$_7clEv
FN:83,__cxx_global_var_init.33
FN:83,_ZL19opcode_0x07_rlc_jmpv
FN:83,opcode_0x07_rlc_impl
FN:95,opcode_0x09_dad_b_impl
FN:95,_ZL21opcode_0x09_dad_b_jmpv
FN:95,_ZNK3$_8clEv
FN:95,__cxx_global_var_init.37
FN:111,_ZL22opcode_0x0a_ldax_b_jmpv
FN:111,_ZNK3$_9clEv
FN:111,__cxx_global_var_init.42
FN:111,opcode_0x0a_ldax_b_impl
FN:123,_ZL21opcode_0x0b_dcx_b_jmpv
FN:123,opcode_0x0b_dcx_b_impl
FN:123,_ZNK4$_10clEv
FN:123,__cxx_global_var_init.45
FN:134,_ZNK4$_11clEv
FN:134,__cxx_global_var_init.47
FN:134,opcode_0x0c_inr_c_impl
FN:134,_ZL21opcode_0x0c_inr_c_jmpv
FN:144,__cxx_global_var_init.51
FN:144,_ZL21opcode_0x0d_dcr_c_jmpv
FN:144,opcode_0x0d_dcr_c_impl
FN:144,_ZNK4$_12clEv
FN:154,_ZL21opcode_0x0e_mvi_c_jmpv
FN:154,_ZNK4$_13clEv
FN:154,__cxx_global_var_init.53
FN:154,opcode_0x0e_mvi_c_impl
FN:162,__cxx_global_var_init.56
FN:162,opcode_0x0f_rrc_impl
FN:162,_ZNK4$_14clEv
FN:162,_ZL19opcode_0x0f_rrc_jmpv
FNDA:1,opcode_0x00_nop_impl
FNDA:1,_ZL19opcode_0x00_nop_jmpv
FNDA:136,__cxx_global_var_init.28
FNDA:136,_ZNK4$_12clEv
FNDA:1,_ZL19opcode_0x07_rlc_jmpv
FNDA:1,_ZL19opcode_0x0f_rrc_jmpv
FNDA:136,__cxx_global_var_init.6
FNDA:1,_ZL21opcode_0x06_mvi_b_jmpv
FNDA:1,_ZL21opcode_0x0c_inr_c_jmpv
FNDA:136,__cxx_global_var_init.45
FNDA:1,opcode_0x02_stax_b_impl
FNDA:15,_Z14test_0x0x_initv
FNDA:1,opcode_0x04_inr_b_impl
FNDA:136,_ZNK3$_5clEv
FNDA:1,_ZL22opcode_0x01_lxi_bc_jmpv
FNDA:1,opcode_0x07_rlc_impl
FNDA:1,opcode_0x05_dcr_b_impl
FNDA:1,opcode_0x0f_rrc_impl
FNDA:136,__cxx_global_var_init.56
FNDA:1,opcode_0x0e_mvi_c_impl
FNDA:1,_ZL22opcode_0x0a_ldax_b_jmpv
FNDA:1,_ZL21opcode_0x0d_dcr_c_jmpv
FNDA:136,__cxx_global_var_init.33
FNDA:136,__cxx_global_var_init.16
FNDA:136,_ZNK3$_3clEv
FNDA:136,_ZNK4$_14clEv
FNDA:136,_ZNK3$_9clEv
FNDA:136,_ZNK4$_10clEv
FNDA:136,_ZNK3$_8clEv
FNDA:136,__cxx_global_var_init.12
FNDA:1,opcode_0x0a_ldax_b_impl
FNDA:136,__cxx_global_var_init.37
FNDA:1,opcode_0x01_lxi_bc_impl
FNDA:136,__cxx_global_var_init.42
FNDA:1,_ZL22opcode_0x03_inx_bc_jmpv
FNDA:1,opcode_0x0d_dcr_c_impl
FNDA:136,__cxx_global_var_init.19
FNDA:136,_ZNK3$_2clEv
FNDA:1,opcode_0x03_inx_bc_impl
FNDA:136,__cxx_global_var_init.53
FNDA:136,_ZNK3$_6clEv
FNDA:1,_ZL21opcode_0x04_inr_b_jmpv
FNDA:1,opcode_0x0c_inr_c_impl
FNDA:1,opcode_0x0b_dcx_b_impl
FNDA:136,_ZNK3$_4clEv
FNDA:136,_ZNK3$_1clEv
FNDA:136,_ZNK3$_7clEv
FNDA:1,opcode_0x09_dad_b_impl
FNDA:136,__cxx_global_var_init.30
FNDA:1,_ZL21opcode_0x05_dcr_b_jmpv
FNDA:1,_ZL21opcode_0x09_dad_b_jmpv
FNDA:136,_ZNK4$_11clEv
FNDA:1,_ZL21opcode_0x0e_mvi_c_jmpv
FNDA:136,__cxx_global_var_init.51
FNDA:136,__cxx_global_var_init.21
FNDA:15,_Z14test_0x0x_finiv
FNDA:1,_ZL22opcode_0x02_stax_b_jmpv
FNDA:1,opcode_0x06_mvi_b_impl
FNDA:136,_ZNK3$_0clEv
FNDA:136,__cxx_global_var_init.47
FNDA:136,_ZNK4$_13clEv
FNDA:1,_ZL21opcode_0x0b_dcx_b_jmpv
FNF:62
FNH:62
DA:6,15
DA:8,15
DA:9,15
DA:11,15
DA:13,15
DA:14,15
DA:16,274
DA:18,1
DA:19,1
DA:21,274
DA:23,1
DA:24,1
DA:25,1
DA:26,1
DA:27,1
DA:28,1
DA:29,1
DA:31,274
DA:33,1
DA:34,1
DA:35,1
DA:36,1
DA:37,1
DA:38,1
DA:39,1
DA:40,1
DA:41,1
DA:43,274
DA:45,1
DA:46,1
DA:47,1
DA:48,1
DA:49,1
DA:50,1
DA:51,1
DA:52,1
DA:53,1
DA:55,274
DA:57,1
DA:58,1
DA:59,1
DA:60,1
DA:61,1
DA:62,1
DA:63,1
DA:65,274
DA:67,1
DA:68,1
DA:69,1
DA:70,1
DA:71,1
DA:72,1
DA:73,1
DA:75,274
DA:77,1
DA:78,1
DA:79,1
DA:80,1
DA:81,1
DA:83,274
DA:85,1
DA:86,1
DA:87,1
DA:88,1
DA:89,1
DA:90,1
DA:91,1
DA:92,1
DA:93,1
DA:95,274
DA:97,1
DA:98,1
DA:99,1
DA:100,1
DA:101,1
DA:102,1
DA:103,1
DA:104,1
DA:106,1
DA:107,1
DA:108,1
DA:109,1
DA:111,274
DA:113,1
DA:114,1
DA:115,1
DA:116,1
DA:117,1
DA:118,1
DA:119,1
DA:120,1
DA:121,1
DA:123,274
DA:125,1
DA:126,1
DA:127,1
DA:128,1
DA:129,1
DA:130,1
DA:131,1
DA:132,1
DA:134,274
DA:136,1
DA:137,1
DA:138,1
DA:139,1
DA:140,1
DA:141,1
DA:142,1
DA:144,274
DA:146,1
DA:147,1
DA:148,1
DA:149,1
DA:150,1
DA:151,1
DA:152,1
DA:154,274
DA:156,1
DA:157,1
DA:158,1
DA:159,1
DA:160,1
DA:162,274
DA:164,1
DA:165,1
DA:166,1
DA:167,1
DA:168,1
DA:169,1
DA:170,1
DA:171,1
DA:172,1
LF:133
LH:133
end_of_record
TN:
SF:/Users/sens/dev/intel8080/tests/src/test_opcodes_0x1x.cc
FN:6,_Z14test_0x1x_initv
FN:11,_Z14test_0x1x_finiv
FN:16,__cxx_global_var_init.6
FN:16,_ZL22opcode_0x11_lxi_de_jmpv
FN:16,opcode_0x11_lxi_de_impl
FN:16,_ZNK3$_0clEv
FN:25,opcode_0x12_stax_de_impl
FN:25,__cxx_global_var_init.13
FN:25,_ZNK3$_1clEv
FN:25,_ZL23opcode_0x12_stax_de_jmpv
FN:36,__cxx_global_var_init.16
FN:36,_ZL22opcode_0x13_inx_de_jmpv
FN:36,opcode_0x13_inx_de_impl
FN:36,_ZNK3$_2clEv
FN:47,_ZNK3$_3clEv
FN:47,__cxx_global_var_init.18
FN:47,_ZL21opcode_0x14_inr_d_jmpv
FN:47,opcode_0x14_inr_d_impl
FN:57,opcode_0x15_dcr_d_impl
FN:57,__cxx_global_var_init.25
FN:57,_ZL21opcode_0x15_dcr_d_jmpv
FN:57,_ZNK3$_4clEv
FN:67,__cxx_global_var_init.27
FN:67,opcode_0x16_mvi_d_impl
FN:67,_ZNK3$_5clEv
FN:67,_ZL21opcode_0x16_mvi_d_jmpv
FN:75,_ZL19opcode_0x17_ral_jmpv
FN:75,opcode_0x17_ral_impl
FN:75,__cxx_global_var_init.30
FN:75,_ZNK3$_6clEv
FN:88,_ZL21opcode_0x19_dad_d_jmpv
FN:88,opcode_0x19_dad_d_impl
FN:88,__cxx_global_var_init.34
FN:88,_ZNK3$_7clEv
FN:104,_ZNK3$_8clEv
FN:104,opcode_0x1a_ldax_d_impl
FN:104,_ZL22opcode_0x1a_ldax_d_jmpv
FN:104,__cxx_global_var_init.39
FN:116,__cxx_global_var_init.42
FN:116,_ZL21opcode_0x1b_dcx_d_jmpv
FN:116,opcode_0x1b_dcx_d_impl
FN:116,_ZNK3$_9clEv
FN:127,_ZNK4$_10clEv
FN:127,__cxx_global_var_init.44
FN:127,_ZL21opcode_0x1c_inr_e_jmpv
FN:127,opcode_0x1c_inr_e_impl
FN:137,__cxx_global_var_init.48
FN:137,opcode_0x1d_dcr_e_impl
FN:137,_ZNK4$_11clEv
FN:137,_ZL21opcode_0x1d_dcr_e_jmpv
FN:147,_ZL21opcode_0x1e_mvi_e_jmpv
FN:147,_ZNK4$_12clEv
FN:147,opcode_0x1e_mvi_e_impl
FN:147,__cxx_global_var_init.50
FN:155,opcode_0x1f_rar_impl
FN:155,_ZL19opcode_0x1f_rar_jmpv
FN:155,_ZNK4$_13clEv
FN:155,__cxx_global_var_init.53
FNDA:136,__cxx_global_var_init.34
FNDA:1,_ZL21opcode_0x15_dcr_d_jmpv
FNDA:136,__cxx_global_var_init.25
FNDA:136,_ZNK3$_0clEv
FNDA:136,_ZNK4$_13clEv
FNDA:1,opcode_0x1d_dcr_e_impl
FNDA:136,_ZNK3$_1clEv
FNDA:1,opcode_0x13_inx_de_impl
FNDA:136,_ZNK3$_7clEv
FNDA:136,__cxx_global_var_init.30
FNDA:136,_ZNK4$_11clEv
FNDA:136,__cxx_global_var_init.13
FNDA:136,_ZNK3$_6clEv
FNDA:136,__cxx_global_var_init.53
FNDA:1,_ZL21opcode_0x16_mvi_d_jmpv
FNDA:1,opcode_0x1c_inr_e_impl
FNDA:136,_ZNK3$_4clEv
FNDA:1,_ZL21opcode_0x1d_dcr_e_jmpv
FNDA:1,_ZL23opcode_0x12_stax_de_jmpv
FNDA:1,opcode_0x14_inr_d_impl
FNDA:136,_ZNK3$_2clEv
FNDA:1,_ZL21opcode_0x14_inr_d_jmpv
FNDA:136,__cxx_global_var_init.16
FNDA:136,_ZNK3$_3clEv
FNDA:136,_ZNK4$_10clEv
FNDA:136,_ZNK3$_9clEv
FNDA:1,opcode_0x16_mvi_d_impl
FNDA:136,_ZNK3$_8clEv
FNDA:1,opcode_0x1b_dcx_d_impl
FNDA:1,_ZL21opcode_0x1e_mvi_e_jmpv
FNDA:1,_ZL21opcode_0x1b_dcx_d_jmpv
FNDA:136,__cxx_global_var_init.42
FNDA:136,__cxx_global_var_init.27
FNDA:1,opcode_0x1f_rar_impl
FNDA:1,opcode_0x1a_ldax_d_impl
FNDA:1,opcode_0x15_dcr_d_impl
FNDA:1,_ZL19opcode_0x17_ral_jmpv
FNDA:136,__cxx_global_var_init.48
FNDA:136,__cxx_global_var_init.44
FNDA:1,_ZL21opcode_0x19_dad_d_jmpv
FNDA:1,_ZL22opcode_0x13_inx_de_jmpv
FNDA:136,_ZNK3$_5clEv
FNDA:1,opcode_0x12_stax_de_impl
FNDA:1,_ZL19opcode_0x1f_rar_jmpv
FNDA:14,_Z14test_0x1x_finiv
FNDA:1,_ZL21opcode_0x1c_inr_e_jmpv
FNDA:1,_ZL22opcode_0x1a_ldax_d_jmpv
FNDA:136,__cxx_global_var_init.50
FNDA:1,opcode_0x11_lxi_de_impl
FNDA:1,_ZL22opcode_0x11_lxi_de_jmpv
FNDA:1,opcode_0x1e_mvi_e_impl
FNDA:136,__cxx_global_var_init.39
FNDA:136,__cxx_global_var_init.18
FNDA:136,_ZNK4$_12clEv
FNDA:1,opcode_0x17_ral_impl
FNDA:1,opcode_0x19_dad_d_impl
FNDA:14,_Z14test_0x1x_initv
FNDA:136,__cxx_global_var_init.6
FNF:58
FNH:58
DA:6,14
DA:8,14
DA:9,14
DA:11,14
DA:13,14
DA:14,14
DA:16,274
DA:18,1
DA:19,1
DA:20,1
DA:21,1
DA:22,1
DA:23,1
DA:25,274
DA:27,1
DA:28,1
DA:29,1
DA:30,1
DA:31,1
DA:32,1
DA:33,1
DA:34,1
DA:36,274
DA:38,1
DA:39,1
DA:40,1
DA:41,1
DA:42,1
DA:43,1
DA:44,1
DA:45,1
DA:47,274
DA:49,1
DA:50,1
DA:51,1
DA:52,1
DA:53,1
DA:54,1
DA:55,1
DA:57,274
DA:59,1
DA:60,1
DA:61,1
DA:62,1
DA:63,1
DA:64,1
DA:65,1
DA:67,274
DA:69,1
DA:70,1
DA:71,1
DA:72,1
DA:73,1
DA:75,274
DA:77,1
DA:78,1
DA:79,1
DA:80,1
DA:81,1
DA:82,1
DA:83,1
DA:84,1
DA:85,1
DA:86,1
DA:88,274
DA:90,1
DA:91,1
DA:92,1
DA:93,1
DA:94,1
DA:95,1
DA:96,1
DA:97,1
DA:99,1
DA:100,1
DA:101,1
DA:102,1
DA:104,274
DA:106,1
DA:107,1
DA:108,1
DA:109,1
DA:110,1
DA:111,1
DA:112,1
DA:113,1
DA:114,1
DA:116,274
DA:118,1
DA:119,1
DA:120,1
DA:121,1
DA:122,1
DA:123,1
DA:124,1
DA:125,1
DA:127,274
DA:129,1
DA:130,1
DA:131,1
DA:132,1
DA:133,1
DA:134,1
DA:135,1
DA:137,274
DA:139,1
DA:140,1
DA:141,1
DA:142,1
DA:143,1
DA:144,1
DA:145,1
DA:147,274
DA:149,1
DA:150,1
DA:151,1
DA:152,1
DA:153,1
DA:155,274
DA:157,1
DA:158,1
DA:159,1
DA:160,1
DA:161,1
DA:162,1
DA:163,1
DA:164,1
DA:165,1
DA:166,1
LF:129
LH:129
end_of_record
TN:
SF:/Users/sens/dev/intel8080/tests/src/test_opcodes_0x2x.cc
FN:6,_Z14test_0x2x_initv
FN:11,_Z14test_0x2x_finiv
FN:16,_ZNK3$_0clEv
FN:16,opcode_0x21_lxi_hl_impl
FN:16,_ZL22opcode_0x21_lxi_hl_jmpv
FN:16,__cxx_global_var_init.6
FN:25,__cxx_global_var_init.13
FN:25,_ZL20opcode_0x22_shld_jmpv
FN:25,_ZNK3$_1clEv
FN:25,opcode_0x22_shld_impl
FN:37,opcode_0x23_inx_hl_impl
FN:37,_ZL22opcode_0x23_inx_hl_jmpv
FN:37,_ZNK3$_2clEv
FN:37,__cxx_global_var_init.17
FN:48,_ZL21opcode_0x24_inr_h_jmpv
FN:48,opcode_0x24_inr_h_impl
FN:48,__cxx_global_var_init.19
FN:48,_ZNK3$_3clEv
FN:58,opcode_0x25_dcr_h_impl
FN:58,_ZNK3$_4clEv
FN:58,__cxx_global_var_init.26
FN:58,_ZL21opcode_0x25_dcr_h_jmpv
FN:68,opcode_0x26_mvi_h_impl
FN:68,_ZL21opcode_0x26_mvi_h_jmpv
FN:68,__cxx_global_var_init.29
FN:68,_ZNK3$_5clEv
FN:76,opcode_0x29_dad_hl_impl
FN:76,_ZNK3$_6clEv
FN:76,__cxx_global_var_init.32
FN:76,_ZL22opcode_0x29_dad_hl_jmpv
FN:89,_ZL20opcode_0x2a_lhld_jmpv
FN:89,_ZNK3$_7clEv
FN:89,opcode_0x2a_lhld_impl
FN:89,__cxx_global_var_init.37
FN:101,opcode_0x2b_dcx_hl_impl
FN:101,_ZL22opcode_0x2b_dcx_hl_jmpv
FN:101,_ZNK3$_8clEv
FN:101,__cxx_global_var_init.41
FN:112,opcode_0x2c_inr_l_impl
FN:112,__cxx_global_var_init.43
FN:112,_ZL21opcode_0x2c_inr_l_jmpv
FN:112,_ZNK3$_9clEv
FN:122,__cxx_global_var_init.47
FN:122,_ZL21opcode_0x2d_dcr_l_jmpv
FN:122,_ZNK4$_10clEv
FN:122,opcode_0x2d_dcr_l_impl
FN:132,_ZNK4$_11clEv
FN:132,__cxx_global_var_init.49
FN:132,_ZL21opcode_0x2e_mvi_l_jmpv
FN:132,opcode_0x2e_mvi_l_impl
FN:140,_ZL19opcode_0x2f_cma_jmpv
FN:140,__cxx_global_var_init.52
FN:140,opcode_0x2f_cma_impl
FN:140,_ZNK4$_12clEv
FNDA:136,__cxx_global_var_init.6
FNDA:136,_ZNK4$_12clEv
FNDA:136,__cxx_global_var_init.41
FNDA:136,__cxx_global_var_init.29
FNDA:136,_ZNK3$_5clEv
FNDA:1,opcode_0x2e_mvi_l_impl
FNDA:1,_ZL22opcode_0x29_dad_hl_jmpv
FNDA:136,__cxx_global_var_init.32
FNDA:1,_ZL21opcode_0x25_dcr_h_jmpv
FNDA:1,opcode_0x2d_dcr_l_impl
FNDA:1,_ZL22opcode_0x21_lxi_hl_jmpv
FNDA:1,_ZL21opcode_0x2e_mvi_l_jmpv
FNDA:13,_Z14test_0x2x_finiv
FNDA:136,_ZNK4$_10clEv
FNDA:136,__cxx_global_var_init.26
FNDA:136,_ZNK3$_9clEv
FNDA:136,_ZNK3$_8clEv
FNDA:136,_ZNK3$_3clEv
FNDA:136,__cxx_global_var_init.17
FNDA:1,opcode_0x2f_cma_impl
FNDA:136,__cxx_global_var_init.37
FNDA:1,_ZL21opcode_0x2d_dcr_l_jmpv
FNDA:1,_ZL22opcode_0x2b_dcx_hl_jmpv
FNDA:136,__cxx_global_var_init.19
FNDA:136,_ZNK3$_2clEv
FNDA:1,opcode_0x2b_dcx_hl_impl
FNDA:136,__cxx_global_var_init.52
FNDA:1,opcode_0x21_lxi_hl_impl
FNDA:136,__cxx_global_var_init.49
FNDA:1,_ZL21opcode_0x2c_inr_l_jmpv
FNDA:1,opcode_0x22_shld_impl
FNDA:136,_ZNK3$_6clEv
FNDA:136,_ZNK3$_4clEv
FNDA:1,_ZL19opcode_0x2f_cma_jmpv
FNDA:1,opcode_0x2a_lhld_impl
FNDA:1,_ZL22opcode_0x23_inx_hl_jmpv
FNDA:1,_ZL21opcode_0x26_mvi_h_jmpv
FNDA:1,opcode_0x24_inr_h_impl
FNDA:13,_Z14test_0x2x_initv
FNDA:1,_ZL21opcode_0x24_inr_h_jmpv
FNDA:136,_ZNK3$_1clEv
FNDA:1,_ZL20opcode_0x22_shld_jmpv
FNDA:136,_ZNK3$_7clEv
FNDA:1,opcode_0x26_mvi_h_impl
FNDA:1,_ZL20opcode_0x2a_lhld_jmpv
FNDA:136,_ZNK4$_11clEv
FNDA:136,__cxx_global_var_init.13
FNDA:136,__cxx_global_var_init.43
FNDA:1,opcode_0x2c_inr_l_impl
FNDA:1,opcode_0x29_dad_hl_impl
FNDA:1,opcode_0x23_inx_hl_impl
FNDA:136,__cxx_global_var_init.47
FNDA:1,opcode_0x25_dcr_h_impl
FNDA:136,_ZNK3$_0clEv
FNF:54
FNH:54
DA:6,13
DA:8,13
DA:9,13
DA:11,13
DA:13,13
DA:14,13
DA:16,274
DA:18,1
DA:19,1
DA:20,1
DA:21,1
DA:22,1
DA:23,1
DA:25,274
DA:27,1
DA:28,1
DA:29,1
DA:30,1
DA:31,1
DA:32,1
DA:33,1
DA:34,1
DA:35,1
DA:37,274
DA:39,1
DA:40,1
DA:41,1
DA:42,1
DA:43,1
DA:44,1
DA:45,1
DA:46,1
DA:48,274
DA:50,1
DA:51,1
DA:52,1
DA:53,1
DA:54,1
DA:55,1
DA:56,1
DA:58,274
DA:60,1
DA:61,1
DA:62,1
DA:63,1
DA:64,1
DA:65,1
DA:66,1
DA:68,274
DA:70,1
DA:71,1
DA:72,1
DA:73,1
DA:74,1
DA:76,274
DA:78,1
DA:79,1
DA:80,1
DA:81,1
DA:82,1
DA:84,1
DA:85,1
DA:86,1
DA:87,1
DA:89,274
DA:91,1
DA:92,1
DA:93,1
DA:94,1
DA:95,1
DA:96,1
DA:97,1
DA:98,1
DA:99,1
DA:101,274
DA:103,1
DA:104,1
DA:105,1
DA:106,1
DA:107,1
DA:108,1
DA:109,1
DA:110,1
DA:112,274
DA:114,1
DA:115,1
DA:116,1
DA:117,1
DA:118,1
DA:119,1
DA:120,1
DA:122,274
DA:124,1
DA:125,1
DA:126,1
DA:127,1
DA:128,1
DA:129,1
DA:130,1
DA:132,274
DA:134,1
DA:135,1
DA:136,1
DA:137,1
DA:138,1
DA:140,274
DA:142,1
DA:143,1
DA:144,1
DA:145,1
DA:146,1
DA:147,1
LF:112
LH:112
end_of_record
TN:
SF:/Users/sens/dev/intel8080/tests/src/test_opcodes_0x3x.cc
FN:6,_Z14test_0x3x_initv
FN:11,_Z14test_0x3x_finiv
FN:16,opcode_0x31_lxi_sp_impl
FN:16,_ZL22opcode_0x31_lxi_sp_jmpv
FN:16,_ZNK3$_0clEv
FN:16,__cxx_global_var_init.6
FN:26,_ZNK3$_1clEv
FN:26,opcode_0x32_sta_impl
FN:26,_ZL19opcode_0x32_sta_jmpv
FN:26,__cxx_global_var_init.12
FN:36,_ZNK3$_2clEv
FN:36,opcode_0x33_inx_sp_impl
FN:36,_ZL22opcode_0x33_inx_sp_jmpv
FN:36,__cxx_global_var_init.15
FN:44,opcode_0x34_inr_m_impl
FN:44,__cxx_global_var_init.18
FN:44,_ZL21opcode_0x34_inr_m_jmpv
FN:44,_ZNK3$_3clEv
FN:57,_ZNK3$_4clEv
FN:57,__cxx_global_var_init.25
FN:57,opcode_0x35_dcr_m_impl
FN:57,_ZL21opcode_0x35_dcr_m_jmpv
FN:70,_ZNK3$_5clEv
FN:70,opcode_0x36_mvi_m_impl
FN:70,_ZL21opcode_0x36_mvi_m_jmpv
FN:70,__cxx_global_var_init.27
FN:81,_ZNK3$_6clEv
FN:81,_ZL19opcode_0x37_stc_jmpv
FN:81,opcode_0x37_stc_impl
FN:81,__cxx_global_var_init.30
FN:89,_ZNK3$_7clEv
FN:89,_ZL22opcode_0x39_dad_sp_jmpv
FN:89,__cxx_global_var_init.33
FN:89,opcode_0x39_dad_sp_impl
FN:104,opcode_0x32_lda_impl
FN:104,_ZL19opcode_0x32_lda_jmpv
FN:104,__cxx_global_var_init.38
FN:104,_ZNK3$_8clEv
FN:114,opcode_0x3b_dcx_sp_impl
FN:114,_ZL22opcode_0x3b_dcx_sp_jmpv
FN:114,__cxx_global_var_init.41
FN:114,_ZNK3$_9clEv
FN:123,opcode_0x3c_inr_a_impl
FN:123,_ZL21opcode_0x3c_inr_a_jmpv
FN:123,__cxx_global_var_init.44
FN:123,_ZNK4$_10clEv
FN:133,_ZL21opcode_0x3d_dcr_a_jmpv
FN:133,_ZNK4$_11clEv
FN:133,__cxx_global_var_init.48
FN:133,opcode_0x3d_dcr_a_impl
FN:143,opcode_0x3e_mvi_a_impl
FN:143,__cxx_global_var_init.50
FN:143,_ZL21opcode_0x3e_mvi_a_jmpv
FN:143,_ZNK4$_12clEv
FN:151,__cxx_global_var_init.52
FN:151,_ZNK4$_13clEv
FN:151,opcode_0x3f_cmc_a_impl
FN:151,_ZL21opcode_0x3f_cmc_a_jmpv
FNDA:136,__cxx_global_var_init.18
FNDA:1,opcode_0x35_dcr_m_impl
FNDA:1,opcode_0x33_inx_sp_impl
FNDA:1,_ZL21opcode_0x3e_mvi_a_jmpv
FNDA:136,__cxx_global_var_init.50
FNDA:14,_Z14test_0x3x_finiv
FNDA:1,opcode_0x32_sta_impl
FNDA:1,opcode_0x3b_dcx_sp_impl
FNDA:1,_ZL22opcode_0x33_inx_sp_jmpv
FNDA:136,__cxx_global_var_init.6
FNDA:1,_ZL21opcode_0x34_inr_m_jmpv
FNDA:136,_ZNK4$_12clEv
FNDA:1,opcode_0x3c_inr_a_impl
FNDA:136,__cxx_global_var_init.41
FNDA:1,_ZL22opcode_0x39_dad_sp_jmpv
FNDA:136,_ZNK3$_5clEv
FNDA:1,_ZL22opcode_0x3b_dcx_sp_jmpv
FNDA:1,_ZL19opcode_0x32_sta_jmpv
FNDA:136,__cxx_global_var_init.15
FNDA:1,_ZL21opcode_0x3c_inr_a_jmpv
FNDA:1,opcode_0x36_mvi_m_impl
FNDA:1,_ZL21opcode_0x36_mvi_m_jmpv
FNDA:14,_Z14test_0x3x_initv
FNDA:136,__cxx_global_var_init.33
FNDA:1,opcode_0x3f_cmc_a_impl
FNDA:136,__cxx_global_var_init.48
FNDA:136,__cxx_global_var_init.44
FNDA:136,_ZNK3$_8clEv
FNDA:136,__cxx_global_var_init.12
FNDA:1,_ZL21opcode_0x35_dcr_m_jmpv
FNDA:136,_ZNK4$_10clEv
FNDA:1,_ZL21opcode_0x3f_cmc_a_jmpv
FNDA:136,_ZNK3$_9clEv
FNDA:1,opcode_0x39_dad_sp_impl
FNDA:136,_ZNK3$_3clEv
FNDA:136,__cxx_global_var_init.27
FNDA:1,opcode_0x3d_dcr_a_impl
FNDA:136,_ZNK3$_2clEv
FNDA:1,opcode_0x32_lda_impl
FNDA:136,__cxx_global_var_init.52
FNDA:1,opcode_0x31_lxi_sp_impl
FNDA:136,_ZNK3$_6clEv
FNDA:1,_ZL19opcode_0x37_stc_jmpv
FNDA:1,_ZL21opcode_0x3d_dcr_a_jmpv
FNDA:1,opcode_0x37_stc_impl
FNDA:136,_ZNK3$_4clEv
FNDA:1,_ZL22opcode_0x31_lxi_sp_jmpv
FNDA:1,opcode_0x3e_mvi_a_impl
FNDA:136,__cxx_global_var_init.30
FNDA:136,_ZNK3$_7clEv
FNDA:136,_ZNK3$_1clEv
FNDA:136,_ZNK4$_11clEv
FNDA:1,opcode_0x34_inr_m_impl
FNDA:136,__cxx_global_var_init.38
FNDA:136,_ZNK4$_13clEv
FNDA:136,_ZNK3$_0clEv
FNDA:1,_ZL19opcode_0x32_lda_jmpv
FNDA:136,__cxx_global_var_init.25
FNF:58
FNH:58
DA:6,14
DA:8,14
DA:9,14
DA:11,14
DA:13,14
DA:14,14
DA:16,274
DA:18,1
DA:19,1
DA:20,1
DA:21,1
DA:22,1
DA:23,1
DA:24,1
DA:26,274
DA:28,1
DA:29,1
DA:30,1
DA:31,1
DA:32,1
DA:33,1
DA:34,1
DA:36,274
DA:38,1
DA:39,1
DA:40,1
DA:41,1
DA:42,1
DA:44,274
DA:46,1
DA:47,1
DA:48,1
DA:49,1
DA:50,1
DA:51,1
DA:52,1
DA:53,1
DA:54,1
DA:55,1
DA:57,274
DA:59,1
DA:60,1
DA:61,1
DA:62,1
DA:63,1
DA:64,1
DA:65,1
DA:66,1
DA:67,1
DA:68,1
DA:70,274
DA:72,1
DA:73,1
DA:74,1
DA:75,1
DA:76,1
DA:77,1
DA:78,1
DA:79,1
DA:81,274
DA:83,1
DA:84,1
DA:85,1
DA:86,1
DA:87,1
DA:89,274
DA:91,1
DA:92,1
DA:93,1
DA:94,1
DA:95,1
DA:96,1
DA:97,1
DA:99,1
DA:100,1
DA:101,1
DA:102,1
DA:104,274
DA:106,1
DA:107,1
DA:108,1
DA:109,1
DA:110,1
DA:111,1
DA:112,1
DA:114,274
DA:116,1
DA:117,1
DA:118,1
DA:119,1
DA:120,1
DA:121,1
DA:123,274
DA:125,1
DA:126,1
DA:127,1
DA:128,1
DA:129,1
DA:130,1
DA:131,1
DA:133,274
DA:135,1
DA:136,1
DA:137,1
DA:138,1
DA:139,1
DA:140,1
DA:141,1
DA:143,274
DA:145,1
DA:146,1
DA:147,1
DA:148,1
DA:149,1
DA:151,274
DA:153,1
DA:154,1
DA:155,1
DA:156,1
DA:157,1
LF:120
LH:120
end_of_record
TN:
SF:/Users/sens/dev/intel8080/tests/src/test_opcodes_0xcx.cc
FN:9,_Z14test_0xcx_initv
FN:19,_Z14test_0xcx_finiv
FN:24,_ZNK3$_0clEv
FN:24,_ZL19opcode_0xc0_rnz_jmpv
FN:24,__cxx_global_var_init.6
FN:24,opcode_0xc0_rnz_impl
FN:45,opcode_0xc1_pop_bc_impl
FN:45,_ZL22opcode_0xc1_pop_bc_jmpv
FN:45,_ZNK3$_1clEv
FN:45,__cxx_global_var_init.15
FN:61,_ZNK3$_2clEv
FN:61,__cxx_global_var_init.20
FN:61,_ZL19opcode_0xc2_jnz_jmpv
FN:61,opcode_0xc2_jnz_impl
FN:76,opcode_0xc3_jmp_impl
FN:76,__cxx_global_var_init.25
FN:76,_ZL19opcode_0xc3_jmp_jmpv
FN:76,_ZNK3$_3clEv
FN:83,_ZL19opcode_0xc4_cnz_jmpv
FN:83,opcode_0xc4_cnz_impl
FN:83,_ZNK3$_4clEv
FN:83,__cxx_global_var_init.29
FN:109,__cxx_global_var_init.37
FN:109,_ZNK3$_5clEv
FN:109,_ZL23opcode_0xc5_push_bc_jmpv
FN:109,opcode_0xc5_push_bc_impl
FN:125,opcode_0xc6_adi_impl
FN:125,__cxx_global_var_init.42
FN:125,_ZNK3$_6clEv
FN:125,_ZL19opcode_0xc6_adi_jmpv
FN:139,_ZL21opcode_0xc7_rst_0_jmpv
FN:139,_ZNK3$_7clEv
FN:139,opcode_0xc7_rst_0_impl
FN:139,__cxx_global_var_init.50
FN:153,opcode_0xc8_rz_impl
FN:153,__cxx_global_var_init.55
FN:153,_ZL18opcode_0xc8_rz_jmpv
FN:153,_ZNK3$_8clEv
FN:175,__cxx_global_var_init.58
FN:175,opcode_0xc9_ret_impl
FN:175,_ZL19opcode_0xc9_ret_jmpv
FN:175,_ZNK3$_9clEv
FN:188,_ZL18opcode_0xca_jz_jmpv
FN:188,opcode_0xca_jz_impl
FN:188,__cxx_global_var_init.61
FN:188,_ZNK4$_10clEv
FN:203,_ZNK4$_11clEv
FN:203,opcode_0xcb_jmp_impl
FN:203,_ZL19opcode_0xcb_jmp_jmpv
FN:203,__cxx_global_var_init.64
FN:211,_ZL18opcode_0xcc_cz_jmpv
FN:211,_ZNK4$_12clEv
FN:211,__cxx_global_var_init.67
FN:211,opcode_0xcc_cz_impl
FN:238,__cxx_global_var_init.70
FN:238,_ZNK4$_13clEv
FN:238,_ZL20opcode_0xcd_call_jmpv
FN:238,opcode_0xcd_call_impl
FN:256,opcode_0xce_aci_impl
FN:256,__cxx_global_var_init.75
FN:256,_ZL19opcode_0xce_aci_jmpv
FN:256,_ZNK4$_14clEv
FN:272,_ZL21opcode_0xcf_rst_1_jmpv
FN:272,__cxx_global_var_init.77
FN:272,opcode_0xcf_rst_1_impl
FN:272,_ZNK4$_15clEv
FNDA:1,opcode_0xcb_jmp_impl
FNDA:136,_ZNK4$_12clEv
FNDA:1,_ZL18opcode_0xcc_cz_jmpv
FNDA:136,__cxx_global_var_init.58
FNDA:1,opcode_0xc7_rst_0_impl
FNDA:1,opcode_0xc9_ret_impl
FNDA:136,__cxx_global_var_init.61
FNDA:16,_Z14test_0xcx_initv
FNDA:1,_ZL19opcode_0xc3_jmp_jmpv
FNDA:1,_ZL20opcode_0xcd_call_jmpv
FNDA:136,_ZNK4$_10clEv
FNDA:136,__cxx_global_var_init.55
FNDA:136,_ZNK3$_3clEv
FNDA:136,__cxx_global_var_init.42
FNDA:136,__cxx_global_var_init.37
FNDA:1,opcode_0xce_aci_impl
FNDA:1,opcode_0xc6_adi_impl
FNDA:1,opcode_0xc1_pop_bc_impl
FNDA:136,_ZNK3$_2clEv
FNDA:1,opcode_0xca_jz_impl
FNDA:136,__cxx_global_var_init.70
FNDA:1,_ZL18opcode_0xca_jz_jmpv
FNDA:1,opcode_0xc8_rz_impl
FNDA:1,_ZL21opcode_0xc7_rst_0_jmpv
FNDA:1,opcode_0xc3_jmp_impl
FNDA:136,__cxx_global_var_init.20
FNDA:136,_ZNK3$_7clEv
FNDA:136,_ZNK4$_11clEv
FNDA:1,_ZL19opcode_0xc4_cnz_jmpv
FNDA:136,_ZNK4$_13clEv
FNDA:136,__cxx_global_var_init.25
FNDA:136,_ZNK3$_0clEv
FNDA:1,_ZL19opcode_0xc6_adi_jmpv
FNDA:136,__cxx_global_var_init.50
FNDA:136,__cxx_global_var_init.6
FNDA:136,__cxx_global_var_init.29
FNDA:136,_ZNK3$_5clEv
FNDA:136,__cxx_global_var_init.15
FNDA:136,_ZNK4$_15clEv
FNDA:1,opcode_0xc0_rnz_impl
FNDA:1,_ZL23opcode_0xc5_push_bc_jmpv
FNDA:136,__cxx_global_var_init.64
FNDA:136,_ZNK3$_9clEv
FNDA:136,_ZNK4$_14clEv
FNDA:1,opcode_0xc5_push_bc_impl
FNDA:136,_ZNK3$_8clEv
FNDA:1,opcode_0xc2_jnz_impl
FNDA:1,opcode_0xcc_cz_impl
FNDA:136,__cxx_global_var_init.67
FNDA:1,_ZL19opcode_0xc2_jnz_jmpv
FNDA:1,_ZL19opcode_0xc0_rnz_jmpv
FNDA:136,__cxx_global_var_init.75
FNDA:1,_ZL22opcode_0xc1_pop_bc_jmpv
FNDA:16,_Z14test_0xcx_finiv
FNDA:1,_ZL21opcode_0xcf_rst_1_jmpv
FNDA:136,_ZNK3$_6clEv
FNDA:136,_ZNK3$_4clEv
FNDA:1,opcode_0xc4_cnz_impl
FNDA:1,_ZL19opcode_0xc9_ret_jmpv
FNDA:1,_ZL19opcode_0xce_aci_jmpv
FNDA:136,_ZNK3$_1clEv
FNDA:136,__cxx_global_var_init.77
FNDA:1,_ZL18opcode_0xc8_rz_jmpv
FNDA:1,_ZL19opcode_0xcb_jmp_jmpv
FNDA:1,opcode_0xcf_rst_1_impl
FNDA:1,opcode_0xcd_call_impl
FNF:66
FNH:66
DA:9,16
DA:11,16
DA:13,16
DA:14,16
DA:15,16
DA:16,16
DA:17,16
DA:19,16
DA:21,16
DA:22,16
DA:24,274
DA:26,1
DA:27,1
DA:28,1
DA:30,1
DA:31,1
DA:33,1
DA:35,1
DA:36,1
DA:37,1
DA:40,0
DA:41,0
DA:43,1
DA:45,274
DA:47,1
DA:48,1
DA:49,1
DA:50,1
DA:51,1
DA:52,1
DA:53,1
DA:55,1
DA:56,1
DA:57,1
DA:58,1
DA:59,1
DA:61,274
DA:63,1
DA:64,1
DA:66,1
DA:68,0
DA:69,0
DA:72,1
DA:74,1
DA:76,274
DA:78,1
DA:79,1
DA:80,1
DA:81,1
DA:83,274
DA:85,1
DA:87,1
DA:93,1
DA:95,1
DA:97,0
DA:98,0
DA:99,0
DA:100,0
DA:103,1
DA:104,1
DA:105,1
DA:107,1
DA:109,274
DA:111,1
DA:112,1
DA:113,1
DA:114,1
DA:115,1
DA:116,1
DA:117,1
DA:119,1
DA:120,1
DA:121,1
DA:122,1
DA:123,1
DA:125,274
DA:127,1
DA:128,1
DA:129,1
DA:130,1
DA:132,1
DA:133,1
DA:134,1
DA:135,1
DA:136,1
DA:137,1
DA:139,274
DA:141,1
DA:142,1
DA:143,1
DA:144,1
DA:146,1
DA:147,1
DA:148,1
DA:149,1
DA:150,1
DA:151,1
DA:153,274
DA:155,1
DA:156,1
DA:157,1
DA:159,1
DA:160,1
DA:162,1
DA:164,0
DA:165,0
DA:166,0
DA:169,1
DA:170,1
DA:172,1
DA:175,274
DA:177,1
DA:178,1
DA:179,1
DA:181,1
DA:182,1
DA:184,1
DA:185,1
DA:186,1
DA:188,274
DA:190,1
DA:191,1
DA:193,1
DA:195,1
DA:196,1
DA:199,0
DA:201,1
DA:203,274
DA:205,1
DA:206,1
DA:208,1
DA:209,1
DA:211,274
DA:213,1
DA:214,1
DA:216,1
DA:222,1
DA:224,1
DA:226,1
DA:227,1
DA:228,1
DA:229,1
DA:232,0
DA:233,0
DA:234,0
DA:236,1
DA:238,274
DA:240,1
DA:242,1
DA:248,1
DA:250,1
DA:251,1
DA:252,1
DA:253,1
DA:254,1
DA:256,274
DA:258,1
DA:259,1
DA:260,1
DA:261,1
DA:262,1
DA:263,1
DA:265,1
DA:266,1
DA:267,1
DA:268,1
DA:269,1
DA:270,1
DA:272,274
DA:274,1
DA:275,1
DA:276,1
DA:277,1
DA:279,1
DA:280,1
DA:281,1
DA:282,1
DA:283,1
DA:284,1
LF:179
LH:164
end_of_record
TN:
SF:/Users/sens/dev/intel8080/tests/src/test_opcodes_0xdx.cc
FN:9,_Z14test_0xdx_initv
FN:19,_Z14test_0xdx_finiv
FN:24,_ZL19opcode_0xd0_rnc_jmpv
FN:24,__cxx_global_var_init.6
FN:24,opcode_0xd0_rnc_impl
FN:24,_ZNK3$_0clEv
FN:45,__cxx_global_var_init.15
FN:45,_ZNK3$_1clEv
FN:45,opcode_0xd1_pop_de_impl
FN:45,_ZL22opcode_0xd1_pop_de_jmpv
FN:61,_ZL19opcode_0xd2_jnc_jmpv
FN:61,opcode_0xd2_jnc_impl
FN:61,__cxx_global_var_init.20
FN:61,_ZNK3$_2clEv
FN:82,_ZL19opcode_0xd4_cnc_jmpv
FN:82,opcode_0xd4_cnc_impl
FN:82,_ZNK3$_3clEv
FN:82,__cxx_global_var_init.25
FN:108,__cxx_global_var_init.33
FN:108,_ZL23opcode_0xd5_push_de_jmpv
FN:108,opcode_0xd5_push_de_impl
FN:108,_ZNK3$_4clEv
FN:124,_ZNK3$_5clEv
FN:124,opcode_0xd6_sui_impl
FN:124,__cxx_global_var_init.38
FN:124,_ZL19opcode_0xd6_sui_jmpv
FN:138,opcode_0xd7_rst_2_impl
FN:138,_ZL21opcode_0xd7_rst_2_jmpv
FN:138,__cxx_global_var_init.46
FN:138,_ZNK3$_6clEv
FN:152,opcode_0xd8_rc_impl
FN:152,_ZNK3$_7clEv
FN:152,_ZL18opcode_0xd8_rc_jmpv
FN:152,__cxx_global_var_init.51
FN:174,_ZNK3$_8clEv
FN:174,__cxx_global_var_init.54
FN:174,_ZL19opcode_0xd9_ret_jmpv
FN:174,opcode_0xd9_ret_impl
FN:187,_ZNK3$_9clEv
FN:187,_ZL18opcode_0xda_jc_jmpv
FN:187,opcode_0xda_jc_impl
FN:187,__cxx_global_var_init.57
FN:208,_ZNK4$_10clEv
FN:208,opcode_0xdc_cc_impl
FN:208,_ZL18opcode_0xdc_cc_jmpv
FN:208,__cxx_global_var_init.60
FN:234,__cxx_global_var_init.63
FN:234,_ZL20opcode_0xdd_call_jmpv
FN:234,opcode_0xdd_call_impl
FN:234,_ZNK4$_11clEv
FN:252,opcode_0xde_sbi_impl
FN:252,_ZL19opcode_0xde_sbi_jmpv
FN:252,_ZNK4$_12clEv
FN:252,__cxx_global_var_init.68
FN:267,opcode_0xdf_rst_3_impl
FN:267,_ZNK4$_13clEv
FN:267,_ZL21opcode_0xdf_rst_3_jmpv
FN:267,__cxx_global_var_init.70
FNDA:136,__cxx_global_var_init.46
FNDA:1,opcode_0xdf_rst_3_impl
FNDA:1,opcode_0xd9_ret_impl
FNDA:136,__cxx_global_var_init.25
FNDA:136,_ZNK3$_0clEv
FNDA:136,_ZNK4$_13clEv
FNDA:1,opcode_0xda_jc_impl
FNDA:136,__cxx_global_var_init.38
FNDA:136,_ZNK3$_1clEv
FNDA:136,_ZNK3$_7clEv
FNDA:1,_ZL19opcode_0xd9_ret_jmpv
FNDA:1,opcode_0xd8_rc_impl
FNDA:1,opcode_0xdd_call_impl
FNDA:136,__cxx_global_var_init.20
FNDA:1,_ZL21opcode_0xd7_rst_2_jmpv
FNDA:14,_Z14test_0xdx_initv
FNDA:1,opcode_0xd0_rnc_impl
FNDA:1,opcode_0xd5_push_de_impl
FNDA:136,__cxx_global_var_init.51
FNDA:136,_ZNK4$_11clEv
FNDA:1,_ZL18opcode_0xd8_rc_jmpv
FNDA:1,_ZL23opcode_0xd5_push_de_jmpv
FNDA:14,_Z14test_0xdx_finiv
FNDA:136,__cxx_global_var_init.70
FNDA:1,_ZL19opcode_0xd6_sui_jmpv
FNDA:136,_ZNK3$_6clEv
FNDA:1,_ZL22opcode_0xd1_pop_de_jmpv
FNDA:136,__cxx_global_var_init.57
FNDA:136,_ZNK3$_4clEv
FNDA:1,_ZL21opcode_0xdf_rst_3_jmpv
FNDA:136,_ZNK3$_2clEv
FNDA:1,opcode_0xd1_pop_de_impl
FNDA:136,_ZNK3$_3clEv
FNDA:1,_ZL19opcode_0xde_sbi_jmpv
FNDA:136,_ZNK4$_10clEv
FNDA:136,_ZNK3$_9clEv
FNDA:1,opcode_0xde_sbi_impl
FNDA:136,_ZNK3$_8clEv
FNDA:1,_ZL18opcode_0xda_jc_jmpv
FNDA:136,__cxx_global_var_init.63
FNDA:1,_ZL19opcode_0xd4_cnc_jmpv
FNDA:1,opcode_0xd4_cnc_impl
FNDA:1,_ZL19opcode_0xd2_jnc_jmpv
FNDA:1,_ZL19opcode_0xd0_rnc_jmpv
FNDA:136,__cxx_global_var_init.33
FNDA:136,__cxx_global_var_init.15
FNDA:1,opcode_0xd6_sui_impl
FNDA:1,_ZL20opcode_0xdd_call_jmpv
FNDA:136,_ZNK3$_5clEv
FNDA:1,opcode_0xd2_jnc_impl
FNDA:1,opcode_0xd7_rst_2_impl
FNDA:136,__cxx_global_var_init.54
FNDA:136,__cxx_global_var_init.68
FNDA:1,_ZL18opcode_0xdc_cc_jmpv
FNDA:1,opcode_0xdc_cc_impl
FNDA:136,_ZNK4$_12clEv
FNDA:136,__cxx_global_var_init.60
FNDA:136,__cxx_global_var_init.6
FNF:58
FNH:58
DA:9,14
DA:11,14
DA:13,14
DA:14,14
DA:15,14
DA:16,14
DA:17,14
DA:19,14
DA:21,14
DA:22,14
DA:24,274
DA:26,1
DA:27,1
DA:28,1
DA:30,1
DA:31,1
DA:33,1
DA:35,0
DA:36,0
DA:37,0
DA:40,1
DA:41,1
DA:43,1
DA:45,274
DA:47,1
DA:48,1
DA:49,1
DA:50,1
DA:51,1
DA:52,1
DA:53,1
DA:55,1
DA:56,1
DA:57,1
DA:58,1
DA:59,1
DA:61,274
DA:63,1
DA:64,1
DA:66,1
DA:68,1
DA:69,1
DA:72,0
DA:74,1
DA:82,274
DA:84,1
DA:86,1
DA:92,1
DA:94,1
DA:96,0
DA:97,0
DA:98,0
DA:99,0
DA:102,1
DA:103,1
DA:104,1
DA:106,1
DA:108,274
DA:110,1
DA:111,1
DA:112,1
DA:113,1
DA:114,1
DA:115,1
DA:116,1
DA:118,1
DA:119,1
DA:120,1
DA:121,1
DA:122,1
DA:124,274
DA:126,1
DA:127,1
DA:128,1
DA:129,1
DA:131,1
DA:132,1
DA:133,1
DA:134,1
DA:135,1
DA:136,1
DA:138,274
DA:140,1
DA:141,1
DA:142,1
DA:143,1
DA:145,1
DA:146,1
DA:147,1
DA:148,1
DA:149,1
DA:150,1
DA:152,274
DA:154,1
DA:155,1
DA:156,1
DA:158,1
DA:159,1
DA:161,1
DA:163,0
DA:164,0
DA:165,0
DA:168,1
DA:169,1
DA:171,1
DA:174,274
DA:176,1
DA:177,1
DA:178,1
DA:180,1
DA:181,1
DA:183,1
DA:184,1
DA:185,1
DA:187,274
DA:189,1
DA:190,1
DA:192,1
DA:194,1
DA:195,1
DA:198,0
DA:200,1
DA:208,274
DA:210,1
DA:212,1
DA:218,1
DA:220,1
DA:222,0
DA:223,0
DA:224,0
DA:225,0
DA:228,1
DA:229,1
DA:230,1
DA:232,1
DA:234,274
DA:236,1
DA:238,1
DA:244,1
DA:246,1
DA:247,1
DA:248,1
DA:249,1
DA:250,1
DA:252,274
DA:254,1
DA:255,1
DA:256,1
DA:257,1
DA:259,1
DA:260,1
DA:262,1
DA:263,1
DA:264,1
DA:265,1
DA:267,274
DA:269,1
DA:270,1
DA:271,1
DA:272,1
DA:274,1
DA:275,1
DA:276,1
DA:277,1
DA:278,1
DA:279,1
LF:166
LH:150
end_of_record
TN:
SF:/Users/sens/dev/intel8080/tests/src/test_opcodes_0xex.cc
FN:9,_Z14test_0xex_initv
FN:19,_Z14test_0xex_finiv
FN:24,_ZL19opcode_0xe0_rpo_jmpv
FN:24,opcode_0xe0_rpo_impl
FN:24,__cxx_global_var_init.6
FN:24,_ZNK3$_0clEv
FN:45,_ZNK3$_1clEv
FN:45,_ZL22opcode_0xe1_pop_hl_jmpv
FN:45,__cxx_global_var_init.15
FN:45,opcode_0xe1_pop_hl_impl
FN:61,_ZL19opcode_0xe2_jpo_jmpv
FN:61,opcode_0xe2_jpo_impl
FN:61,__cxx_global_var_init.20
FN:61,_ZNK3$_2clEv
FN:76,opcode_0xe3_xthl_impl
FN:76,__cxx_global_var_init.25
FN:76,_ZNK3$_3clEv
FN:76,_ZL20opcode_0xe3_xthl_jmpv
FN:93,_ZNK3$_4clEv
FN:93,opcode_0xe4_cpo_impl
FN:93,_ZL19opcode_0xe4_cpo_jmpv
FN:93,__cxx_global_var_init.32
FN:119,_ZL23opcode_0xe5_push_hl_jmpv
FN:119,opcode_0xe5_push_hl_impl
FN:119,__cxx_global_var_init.40
FN:119,_ZNK3$_5clEv
FN:135,_ZNK3$_6clEv
FN:135,_ZL19opcode_0xe6_ani_jmpv
FN:135,opcode_0xe6_ani_impl
FN:135,__cxx_global_var_init.45
FN:149,__cxx_global_var_init.53
FN:149,_ZNK3$_7clEv
FN:149,_ZL21opcode_0xe7_rst_4_jmpv
FN:149,opcode_0xe7_rst_4_impl
FN:163,_ZL19opcode_0xe8_rpe_jmpv
FN:163,opcode_0xe8_rpe_impl
FN:163,_ZNK3$_8clEv
FN:163,__cxx_global_var_init.58
FN:185,opcode_0xe9_pchl_impl
FN:185,_ZNK3$_9clEv
FN:185,_ZL20opcode_0xe9_pchl_jmpv
FN:185,__cxx_global_var_init.61
FN:195,__cxx_global_var_init.64
FN:195,_ZL19opcode_0xea_jpe_jmpv
FN:195,_ZNK4$_10clEv
FN:195,opcode_0xea_jpe_impl
FN:210,__cxx_global_var_init.67
FN:210,_ZL20opcode_0xeb_xchg_jmpv
FN:210,_ZNK4$_11clEv
FN:210,opcode_0xeb_xchg_impl
FN:228,__cxx_global_var_init.73
FN:228,_ZL19opcode_0xec_cpe_jmpv
FN:228,opcode_0xec_cpe_impl
FN:228,_ZNK4$_12clEv
FN:254,__cxx_global_var_init.76
FN:254,_ZL20opcode_0xed_call_jmpv
FN:254,opcode_0xed_call_impl
FN:254,_ZNK4$_13clEv
FN:272,_ZNK4$_14clEv
FN:272,opcode_0xee_xri_impl
FN:272,__cxx_global_var_init.81
FN:272,_ZL19opcode_0xee_xri_jmpv
FN:287,opcode_0xef_rst_5_impl
FN:287,_ZL21opcode_0xef_rst_5_jmpv
FN:287,__cxx_global_var_init.83
FN:287,_ZNK4$_15clEv
FNDA:136,__cxx_global_var_init.67
FNDA:136,__cxx_global_var_init.73
FNDA:1,opcode_0xe9_pchl_impl
FNDA:136,_ZNK3$_6clEv
FNDA:136,__cxx_global_var_init.53
FNDA:1,_ZL20opcode_0xed_call_jmpv
FNDA:136,_ZNK3$_4clEv
FNDA:1,opcode_0xe0_rpo_impl
FNDA:1,opcode_0xed_call_impl
FNDA:1,_ZL21opcode_0xef_rst_5_jmpv
FNDA:1,_ZL19opcode_0xe2_jpo_jmpv
FNDA:1,_ZL19opcode_0xe8_rpe_jmpv
FNDA:136,_ZNK3$_1clEv
FNDA:136,__cxx_global_var_init.76
FNDA:1,opcode_0xef_rst_5_impl
FNDA:1,_ZL19opcode_0xe0_rpo_jmpv
FNDA:1,_ZL20opcode_0xeb_xchg_jmpv
FNDA:136,__cxx_global_var_init.40
FNDA:136,__cxx_global_var_init.6
FNDA:136,_ZNK3$_5clEv
FNDA:16,_Z14test_0xex_finiv
FNDA:1,_ZL22opcode_0xe1_pop_hl_jmpv
FNDA:136,__cxx_global_var_init.15
FNDA:1,opcode_0xe1_pop_hl_impl
FNDA:136,_ZNK4$_15clEv
FNDA:1,opcode_0xe5_push_hl_impl
FNDA:1,_ZL19opcode_0xec_cpe_jmpv
FNDA:136,__cxx_global_var_init.64
FNDA:1,opcode_0xec_cpe_impl
FNDA:1,opcode_0xe8_rpe_impl
FNDA:1,_ZL23opcode_0xe5_push_hl_jmpv
FNDA:136,_ZNK3$_8clEv
FNDA:136,_ZNK3$_9clEv
FNDA:136,_ZNK4$_14clEv
FNDA:1,opcode_0xe3_xthl_impl
FNDA:136,__cxx_global_var_init.83
FNDA:136,_ZNK3$_2clEv
FNDA:1,opcode_0xe4_cpo_impl
FNDA:1,opcode_0xee_xri_impl
FNDA:136,__cxx_global_var_init.81
FNDA:1,_ZL19opcode_0xe4_cpo_jmpv
FNDA:16,_Z14test_0xex_initv
FNDA:1,_ZL19opcode_0xee_xri_jmpv
FNDA:136,__cxx_global_var_init.20
FNDA:136,_ZNK3$_7clEv
FNDA:1,_ZL21opcode_0xe7_rst_4_jmpv
FNDA:136,_ZNK4$_11clEv
FNDA:1,_ZL20opcode_0xe9_pchl_jmpv
FNDA:1,opcode_0xe2_jpo_impl
FNDA:1,opcode_0xeb_xchg_impl
FNDA:1,opcode_0xe7_rst_4_impl
FNDA:136,_ZNK4$_13clEv
FNDA:1,_ZL19opcode_0xea_jpe_jmpv
FNDA:136,_ZNK3$_0clEv
FNDA:136,__cxx_global_var_init.25
FNDA:1,_ZL20opcode_0xe3_xthl_jmpv
FNDA:136,_ZNK4$_12clEv
FNDA:136,__cxx_global_var_init.45
FNDA:1,opcode_0xea_jpe_impl
FNDA:136,__cxx_global_var_init.32
FNDA:136,__cxx_global_var_init.58
FNDA:1,_ZL19opcode_0xe6_ani_jmpv
FNDA:136,__cxx_global_var_init.61
FNDA:136,_ZNK4$_10clEv
FNDA:136,_ZNK3$_3clEv
FNDA:1,opcode_0xe6_ani_impl
FNF:66
FNH:66
DA:9,16
DA:11,16
DA:13,16
DA:14,16
DA:15,16
DA:16,16
DA:17,16
DA:19,16
DA:21,16
DA:22,16
DA:24,274
DA:26,1
DA:27,1
DA:28,1
DA:30,1
DA:31,1
DA:33,1
DA:35,0
DA:36,0
DA:37,0
DA:40,1
DA:41,1
DA:43,1
DA:45,274
DA:47,1
DA:48,1
DA:49,1
DA:50,1
DA:51,1
DA:52,1
DA:53,1
DA:55,1
DA:56,1
DA:57,1
DA:58,1
DA:59,1
DA:61,274
DA:63,1
DA:64,1
DA:66,1
DA:68,1
DA:69,1
DA:72,0
DA:74,1
DA:76,274
DA:78,1
DA:79,1
DA:80,1
DA:81,1
DA:82,1
DA:83,1
DA:84,1
DA:86,1
DA:87,1
DA:88,1
DA:89,1
DA:90,1
DA:91,1
DA:93,274
DA:95,1
DA:97,1
DA:103,1
DA:105,1
DA:107,0
DA:108,0
DA:109,0
DA:110,0
DA:113,1
DA:114,1
DA:115,1
DA:117,1
DA:119,274
DA:121,1
DA:122,1
DA:123,1
DA:124,1
DA:125,1
DA:126,1
DA:127,1
DA:129,1
DA:130,1
DA:131,1
DA:132,1
DA:133,1
DA:135,274
DA:137,1
DA:138,1
DA:139,1
DA:140,1
DA:142,1
DA:143,1
DA:144,1
DA:145,1
DA:146,1
DA:147,1
DA:149,274
DA:151,1
DA:152,1
DA:153,1
DA:154,1
DA:156,1
DA:157,1
DA:158,1
DA:159,1
DA:160,1
DA:161,1
DA:163,274
DA:165,1
DA:166,1
DA:167,1
DA:169,1
DA:170,1
DA:172,1
DA:174,0
DA:175,0
DA:176,0
DA:179,1
DA:180,1
DA:182,1
DA:185,274
DA:187,1
DA:188,1
DA:189,1
DA:190,1
DA:191,1
DA:192,1
DA:193,1
DA:195,274
DA:197,1
DA:198,1
DA:200,1
DA:202,0
DA:203,0
DA:206,1
DA:208,1
DA:210,274
DA:212,1
DA:213,1
DA:214,1
DA:215,1
DA:216,1
DA:217,1
DA:218,1
DA:219,1
DA:221,1
DA:222,1
DA:223,1
DA:224,1
DA:225,1
DA:226,1
DA:228,274
DA:230,1
DA:232,1
DA:238,1
DA:240,1
DA:242,1
DA:243,1
DA:244,1
DA:245,1
DA:248,0
DA:249,0
DA:250,0
DA:252,1
DA:254,274
DA:256,1
DA:258,1
DA:264,1
DA:266,1
DA:267,1
DA:268,1
DA:269,1
DA:270,1
DA:272,274
DA:274,1
DA:275,1
DA:276,1
DA:277,1
DA:279,1
DA:280,1
DA:282,1
DA:283,1
DA:284,1
DA:285,1
DA:287,274
DA:289,1
DA:290,1
DA:291,1
DA:292,1
DA:294,1
DA:295,1
DA:296,1
DA:297,1
DA:298,1
DA:299,1
LF:194
LH:178
end_of_record
TN:
SF:/Users/sens/dev/intel8080/tests/src/test_opcodes_0xfx.cc
FN:9,_Z14test_0xfx_initv
FN:19,_Z14test_0xfx_finiv
FN:24,_ZL18opcode_0xe0_rp_jmpv
FN:24,__cxx_global_var_init.6
FN:24,opcode_0xe0_rp_impl
FN:24,_ZNK3$_0clEv
FN:45,opcode_0xf1_pop_psw_impl
FN:45,_ZL23opcode_0xf1_pop_psw_jmpv
FN:45,__cxx_global_var_init.15
FN:45,_ZNK3$_1clEv
FN:61,_ZL18opcode_0xf2_jp_jmpv
FN:61,__cxx_global_var_init.20
FN:61,_ZNK3$_2clEv
FN:61,opcode_0xf2_jp_impl
FN:82,_ZNK3$_3clEv
FN:82,_ZL18opcode_0xf4_cp_jmpv
FN:82,opcode_0xf4_cp_impl
FN:82,__cxx_global_var_init.25
FN:108,__cxx_global_var_init.33
FN:108,_ZL24opcode_0xf5_push_psw_jmpv
FN:108,opcode_0xf5_push_psw_impl
FN:108,_ZNK3$_4clEv
FN:124,opcode_0xf6_ori_impl
FN:124,_ZNK3$_5clEv
FN:124,_ZL19opcode_0xf6_ori_jmpv
FN:124,__cxx_global_var_init.38
FN:138,opcode_0xf7_rst_6_impl
FN:138,_ZL21opcode_0xf7_rst_6_jmpv
FN:138,__cxx_global_var_init.46
FN:138,_ZNK3$_6clEv
FN:152,_ZL18opcode_0xf8_rm_jmpv
FN:152,_ZNK3$_7clEv
FN:152,__cxx_global_var_init.51
FN:152,opcode_0xf8_rm_impl
FN:174,_ZNK3$_8clEv
FN:174,__cxx_global_var_init.54
FN:174,opcode_0xf9_sphl_impl
FN:174,_ZL20opcode_0xf9_sphl_jmpv
FN:185,_ZNK3$_9clEv
FN:185,opcode_0xfa_jm_impl
FN:185,_ZL18opcode_0xfa_jm_jmpv
FN:185,__cxx_global_var_init.57
FN:206,_ZNK4$_10clEv
FN:206,__cxx_global_var_init.60
FN:206,opcode_0xfc_cm_impl
FN:206,_ZL18opcode_0xfc_cm_jmpv
FN:232,_ZL20opcode_0xfd_call_jmpv
FN:232,opcode_0xfd_call_impl
FN:232,__cxx_global_var_init.63
FN:232,_ZNK4$_11clEv
FN:250,_ZL19opcode_0xfe_cpi_jmpv
FN:250,opcode_0xfe_cpi_impl
FN:250,_ZNK4$_12clEv
FN:250,__cxx_global_var_init.68
FN:265,_ZL21opcode_0xff_rst_7_jmpv
FN:265,__cxx_global_var_init.71
FN:265,opcode_0xff_rst_7_impl
FN:265,_ZNK4$_13clEv
FNDA:136,__cxx_global_var_init.51
FNDA:136,_ZNK4$_11clEv
FNDA:1,_ZL19opcode_0xf6_ori_jmpv
FNDA:1,_ZL18opcode_0xf8_rm_jmpv
FNDA:136,__cxx_global_var_init.20
FNDA:136,_ZNK3$_7clEv
FNDA:1,opcode_0xfa_jm_impl
FNDA:136,_ZNK3$_1clEv
FNDA:1,opcode_0xfc_cm_impl
FNDA:1,opcode_0xf8_rm_impl
FNDA:136,__cxx_global_var_init.38
FNDA:136,_ZNK4$_13clEv
FNDA:1,opcode_0xf9_sphl_impl
FNDA:136,_ZNK3$_0clEv
FNDA:136,__cxx_global_var_init.25
FNDA:136,__cxx_global_var_init.46
FNDA:1,opcode_0xff_rst_7_impl
FNDA:1,opcode_0xe0_rp_impl
FNDA:1,_ZL18opcode_0xfa_jm_jmpv
FNDA:136,_ZNK3$_2clEv
FNDA:14,_Z14test_0xfx_finiv
FNDA:136,_ZNK3$_4clEv
FNDA:1,_ZL18opcode_0xfc_cm_jmpv
FNDA:1,opcode_0xf2_jp_impl
FNDA:136,__cxx_global_var_init.57
FNDA:1,_ZL20opcode_0xf9_sphl_jmpv
FNDA:136,_ZNK3$_6clEv
FNDA:1,_ZL20opcode_0xfd_call_jmpv
FNDA:1,opcode_0xf1_pop_psw_impl
FNDA:136,__cxx_global_var_init.33
FNDA:1,opcode_0xf7_rst_6_impl
FNDA:1,_ZL18opcode_0xe0_rp_jmpv
FNDA:1,opcode_0xfe_cpi_impl
FNDA:136,__cxx_global_var_init.63
FNDA:1,_ZL18opcode_0xf4_cp_jmpv
FNDA:1,opcode_0xf4_cp_impl
FNDA:1,_ZL18opcode_0xf2_jp_jmpv
FNDA:1,_ZL23opcode_0xf1_pop_psw_jmpv
FNDA:136,_ZNK3$_8clEv
FNDA:136,_ZNK4$_10clEv
FNDA:136,_ZNK3$_9clEv
FNDA:1,_ZL21opcode_0xff_rst_7_jmpv
FNDA:136,_ZNK3$_3clEv
FNDA:1,_ZL19opcode_0xfe_cpi_jmpv
FNDA:14,_Z14test_0xfx_initv
FNDA:1,opcode_0xfd_call_impl
FNDA:1,_ZL21opcode_0xf7_rst_6_jmpv
FNDA:136,__cxx_global_var_init.60
FNDA:136,__cxx_global_var_init.6
FNDA:1,opcode_0xf5_push_psw_impl
FNDA:136,_ZNK4$_12clEv
FNDA:1,opcode_0xf6_ori_impl
FNDA:1,_ZL24opcode_0xf5_push_psw_jmpv
FNDA:136,__cxx_global_var_init.68
FNDA:136,__cxx_global_var_init.54
FNDA:136,__cxx_global_var_init.71
FNDA:136,_ZNK3$_5clEv
FNDA:136,__cxx_global_var_init.15
FNF:58
FNH:58
DA:9,14
DA:11,14
DA:13,14
DA:14,14
DA:15,14
DA:16,14
DA:17,14
DA:19,14
DA:21,14
DA:22,14
DA:24,274
DA:26,1
DA:27,1
DA:28,1
DA:30,1
DA:31,1
DA:33,1
DA:35,1
DA:36,1
DA:37,1
DA:40,0
DA:41,0
DA:43,1
DA:45,274
DA:47,1
DA:48,1
DA:49,1
DA:50,1
DA:51,1
DA:52,1
DA:53,1
DA:55,1
DA:56,1
DA:57,1
DA:58,1
DA:59,1
DA:61,274
DA:63,1
DA:64,1
DA:66,1
DA:68,0
DA:69,0
DA:72,1
DA:74,1
DA:82,274
DA:84,1
DA:86,1
DA:92,1
DA:94,1
DA:96,1
DA:97,1
DA:98,1
DA:99,1
DA:102,0
DA:103,0
DA:104,0
DA:106,1
DA:108,274
DA:110,1
DA:111,1
DA:112,1
DA:113,1
DA:114,1
DA:115,1
DA:116,1
DA:118,1
DA:119,1
DA:120,1
DA:121,1
DA:122,1
DA:124,274
DA:126,1
DA:127,1
DA:128,1
DA:129,1
DA:131,1
DA:132,1
DA:133,1
DA:134,1
DA:135,1
DA:136,1
DA:138,274
DA:140,1
DA:141,1
DA:142,1
DA:143,1
DA:145,1
DA:146,1
DA:147,1
DA:148,1
DA:149,1
DA:150,1
DA:152,274
DA:154,1
DA:155,1
DA:156,1
DA:158,1
DA:159,1
DA:161,1
DA:163,1
DA:164,1
DA:165,1
DA:168,0
DA:169,0
DA:171,1
DA:174,274
DA:176,1
DA:177,1
DA:178,1
DA:179,1
DA:181,1
DA:182,1
DA:183,1
DA:185,274
DA:187,1
DA:188,1
DA:190,1
DA:192,1
DA:193,1
DA:196,0
DA:198,1
DA:206,274
DA:208,1
DA:210,1
DA:216,1
DA:218,1
DA:220,0
DA:221,0
DA:222,0
DA:223,0
DA:226,1
DA:227,1
DA:228,1
DA:230,1
DA:232,274
DA:234,1
DA:236,1
DA:242,1
DA:244,1
DA:245,1
DA:246,1
DA:247,1
DA:248,1
DA:250,274
DA:252,1
DA:253,1
DA:254,1
DA:255,1
DA:257,1
DA:258,1
DA:260,1
DA:261,1
DA:262,1
DA:263,1
DA:265,274
DA:267,1
DA:268,1
DA:269,1
DA:270,1
DA:272,1
DA:273,1
DA:274,1
DA:275,1
DA:276,1
DA:277,1
LF:165
LH:151
end_of_record
TN:
SF:/Users/sens/dev/intel8080/tests/src/test_opcodes_add.cc
FN:8,_Z13test_add_initv
FN:22,_Z13test_add_finiv
FN:27,_ZNK3$_0clEv
FN:27,_ZL14opcode_add_jmpv
FN:27,opcode_add_impl
FN:27,__cxx_global_var_init.6
FN:90,opcode_adc_impl
FN:90,_ZL14opcode_adc_jmpv
FN:90,_ZNK3$_1clEv
FN:90,__cxx_global_var_init.18
FNDA:2,_Z13test_add_initv
FNDA:136,__cxx_global_var_init.6
FNDA:136,_ZNK3$_1clEv
FNDA:136,__cxx_global_var_init.18
FNDA:136,_ZNK3$_0clEv
FNDA:1,_ZL14opcode_add_jmpv
FNDA:1,opcode_add_impl
FNDA:2,_Z13test_add_finiv
FNDA:1,opcode_adc_impl
FNDA:1,_ZL14opcode_adc_jmpv
FNF:10
FNH:10
DA:8,2
DA:10,2
DA:11,2
DA:12,2
DA:13,2
DA:14,2
DA:15,2
DA:16,2
DA:17,2
DA:18,2
DA:19,2
DA:20,2
DA:22,2
DA:24,2
DA:25,2
DA:27,274
DA:31,1
DA:32,1
DA:33,1
DA:34,1
DA:35,1
DA:36,1
DA:38,1
DA:39,1
DA:40,1
DA:41,1
DA:42,1
DA:43,1
DA:45,1
DA:46,1
DA:47,1
DA:48,1
DA:49,1
DA:50,1
DA:52,1
DA:53,1
DA:54,1
DA:55,1
DA:56,1
DA:57,1
DA:59,1
DA:60,1
DA:61,1
DA:62,1
DA:63,1
DA:64,1
DA:66,1
DA:67,1
DA:68,1
DA:69,1
DA:70,1
DA:71,1
DA:73,1
DA:74,1
DA:75,1
DA:76,1
DA:77,1
DA:78,1
DA:79,1
DA:80,1
DA:81,1
DA:83,1
DA:84,1
DA:85,1
DA:86,1
DA:87,1
DA:88,1
DA:90,274
DA:94,1
DA:95,1
DA:96,1
DA:97,1
DA:98,1
DA:99,1
DA:100,1
DA:101,1
DA:103,1
DA:104,1
DA:105,1
DA:106,1
DA:107,1
DA:108,1
DA:109,1
DA:110,1
DA:112,1
DA:113,1
DA:114,1
DA:115,1
DA:116,1
DA:117,1
DA:118,1
DA:119,1
DA:121,1
DA:122,1
DA:123,1
DA:124,1
DA:125,1
DA:126,1
DA:127,1
DA:128,1
DA:130,1
DA:131,1
DA:132,1
DA:133,1
DA:134,1
DA:135,1
DA:136,1
DA:137,1
DA:139,1
DA:140,1
DA:141,1
DA:142,1
DA:143,1
DA:144,1
DA:145,1
DA:146,1
DA:148,1
DA:149,1
DA:150,1
DA:151,1
DA:152,1
DA:153,1
DA:154,1
DA:155,1
DA:156,1
DA:157,1
DA:158,1
DA:160,1
DA:161,1
DA:162,1
DA:163,1
DA:164,1
DA:165,1
DA:166,1
DA:167,1
LF:135
LH:135
end_of_record
TN:
SF:/Users/sens/dev/intel8080/tests/src/test_opcodes_bitwise.cc
FN:8,_Z17test_bitwise_initv
FN:22,_Z17test_bitwise_finiv
FN:27,_ZNK3$_0clEv
FN:27,opcode_and_impl
FN:27,_ZL14opcode_and_jmpv
FN:27,__cxx_global_var_init.6
FN:90,__cxx_global_var_init.17
FN:90,_ZL14opcode_xri_jmpv
FN:90,_ZNK3$_1clEv
FN:90,opcode_xri_impl
FN:153,opcode_ora_impl
FN:153,_ZL14opcode_ora_jmpv
FN:153,_ZNK3$_2clEv
FN:153,__cxx_global_var_init.19
FNDA:136,_ZNK3$_2clEv
FNDA:136,__cxx_global_var_init.19
FNDA:136,_ZNK3$_1clEv
FNDA:1,_ZL14opcode_ora_jmpv
FNDA:1,opcode_xri_impl
FNDA:136,__cxx_global_var_init.6
FNDA:1,_ZL14opcode_and_jmpv
FNDA:1,opcode_and_impl
FNDA:3,_Z17test_bitwise_finiv
FNDA:1,_ZL14opcode_xri_jmpv
FNDA:3,_Z17test_bitwise_initv
FNDA:136,__cxx_global_var_init.17
FNDA:136,_ZNK3$_0clEv
FNDA:1,opcode_ora_impl
FNF:14
FNH:14
DA:8,3
DA:10,3
DA:11,3
DA:12,3
DA:13,3
DA:14,3
DA:15,3
DA:16,3
DA:17,3
DA:18,3
DA:19,3
DA:20,3
DA:22,3
DA:24,3
DA:25,3
DA:27,274
DA:31,1
DA:32,1
DA:33,1
DA:34,1
DA:35,1
DA:36,1
DA:38,1
DA:39,1
DA:40,1
DA:41,1
DA:42,1
DA:43,1
DA:45,1
DA:46,1
DA:47,1
DA:48,1
DA:49,1
DA:50,1
DA:52,1
DA:53,1
DA:54,1
DA:55,1
DA:56,1
DA:57,1
DA:59,1
DA:60,1
DA:61,1
DA:62,1
DA:63,1
DA:64,1
DA:66,1
DA:67,1
DA:68,1
DA:69,1
DA:70,1
DA:71,1
DA:73,1
DA:74,1
DA:75,1
DA:76,1
DA:77,1
DA:78,1
DA:79,1
DA:80,1
DA:81,1
DA:83,1
DA:84,1
DA:85,1
DA:86,1
DA:87,1
DA:88,1
DA:90,274
DA:94,1
DA:95,1
DA:96,1
DA:97,1
DA:98,1
DA:99,1
DA:101,1
DA:102,1
DA:103,1
DA:104,1
DA:105,1
DA:106,1
DA:108,1
DA:109,1
DA:110,1
DA:111,1
DA:112,1
DA:113,1
DA:115,1
DA:116,1
DA:117,1
DA:118,1
DA:119,1
DA:120,1
DA:122,1
DA:123,1
DA:124,1
DA:125,1
DA:126,1
DA:127,1
DA:129,1
DA:130,1
DA:131,1
DA:132,1
DA:133,1
DA:134,1
DA:136,1
DA:137,1
DA:138,1
DA:139,1
DA:140,1
DA:141,1
DA:142,1
DA:143,1
DA:144,1
DA:146,1
DA:147,1
DA:148,1
DA:149,1
DA:150,1
DA:151,1
DA:153,274
DA:157,1
DA:158,1
DA:159,1
DA:160,1
DA:161,1
DA:162,1
DA:164,1
DA:165,1
DA:166,1
DA:167,1
DA:168,1
DA:169,1
DA:171,1
DA:172,1
DA:173,1
DA:174,1
DA:175,1
DA:176,1
DA:178,1
DA:179,1
DA:180,1
DA:181,1
DA:182,1
DA:183,1
DA:185,1
DA:186,1
DA:187,1
DA:188,1
DA:189,1
DA:190,1
DA:192,1
DA:193,1
DA:194,1
DA:195,1
DA:196,1
DA:197,1
DA:199,1
DA:200,1
DA:201,1
DA:202,1
DA:203,1
DA:204,1
DA:205,1
DA:206,1
DA:207,1
DA:209,1
DA:210,1
DA:211,1
DA:212,1
DA:213,1
DA:214,1
LF:171
LH:171
end_of_record
TN:
SF:/Users/sens/dev/intel8080/tests/src/test_opcodes_mov.cc
FN:8,_Z13test_mov_initv
FN:22,_Z13test_mov_finiv
FN:27,_ZNK3$_0clEv
FN:27,__cxx_global_var_init.6
FN:27,opcode_mov_b_impl
FN:27,_ZL16opcode_mov_b_jmpv
FN:51,__cxx_global_var_init.19
FN:51,opcode_mov_c_impl
FN:51,_ZL16opcode_mov_c_jmpv
FN:51,_ZNK3$_1clEv
FN:75,_ZNK3$_2clEv
FN:75,opcode_mov_d_impl
FN:75,__cxx_global_var_init.29
FN:75,_ZL16opcode_mov_d_jmpv
FN:99,_ZL16opcode_mov_e_jmpv
FN:99,__cxx_global_var_init.39
FN:99,_ZNK3$_3clEv
FN:99,opcode_mov_e_impl
FN:123,__cxx_global_var_init.49
FN:123,_ZNK3$_4clEv
FN:123,opcode_mov_h_impl
FN:123,_ZL16opcode_mov_h_jmpv
FN:147,__cxx_global_var_init.59
FN:147,opcode_mov_l_impl
FN:147,_ZNK3$_5clEv
FN:147,_ZL16opcode_mov_l_jmpv
FN:171,_ZNK3$_6clEv
FN:171,_ZL16opcode_mov_m_jmpv
FN:171,opcode_mov_m_impl
FN:171,__cxx_global_var_init.69
FN:192,_ZNK3$_7clEv
FN:192,__cxx_global_var_init.78
FN:192,_ZL16opcode_mov_a_jmpv
FN:192,opcode_mov_a_impl
FNDA:136,_ZNK3$_1clEv
FNDA:136,_ZNK3$_7clEv
FNDA:136,_ZNK3$_0clEv
FNDA:136,__cxx_global_var_init.78
FNDA:136,__cxx_global_var_init.59
FNDA:136,__cxx_global_var_init.19
FNDA:136,_ZNK3$_2clEv
FNDA:8,_Z13test_mov_finiv
FNDA:136,__cxx_global_var_init.49
FNDA:8,_Z13test_mov_initv
FNDA:1,opcode_mov_c_impl
FNDA:136,_ZNK3$_6clEv
FNDA:1,opcode_mov_l_impl
FNDA:1,opcode_mov_d_impl
FNDA:1,_ZL16opcode_mov_c_jmpv
FNDA:1,_ZL16opcode_mov_m_jmpv
FNDA:136,_ZNK3$_4clEv
FNDA:1,_ZL16opcode_mov_l_jmpv
FNDA:136,__cxx_global_var_init.69
FNDA:1,opcode_mov_b_impl
FNDA:136,_ZNK3$_3clEv
FNDA:1,_ZL16opcode_mov_d_jmpv
FNDA:1,opcode_mov_e_impl
FNDA:1,_ZL16opcode_mov_h_jmpv
FNDA:1,_ZL16opcode_mov_b_jmpv
FNDA:1,_ZL16opcode_mov_e_jmpv
FNDA:136,__cxx_global_var_init.39
FNDA:1,_ZL16opcode_mov_a_jmpv
FNDA:136,__cxx_global_var_init.6
FNDA:1,opcode_mov_h_impl
FNDA:136,_ZNK3$_5clEv
FNDA:1,opcode_mov_a_impl
FNDA:136,__cxx_global_var_init.29
FNDA:1,opcode_mov_m_impl
FNF:34
FNH:34
DA:8,8
DA:10,8
DA:11,8
DA:12,8
DA:13,8
DA:14,8
DA:15,8
DA:16,8
DA:17,8
DA:18,8
DA:19,8
DA:20,8
DA:22,8
DA:24,8
DA:25,8
DA:27,274
DA:29,1
DA:30,1
DA:31,1
DA:32,1
DA:33,1
DA:34,1
DA:35,1
DA:36,1
DA:37,1
DA:38,1
DA:39,1
DA:40,1
DA:42,1
DA:43,1
DA:44,1
DA:45,1
DA:46,1
DA:47,1
DA:48,1
DA:49,1
DA:51,274
DA:53,1
DA:54,1
DA:55,1
DA:56,1
DA:57,1
DA:58,1
DA:59,1
DA:60,1
DA:61,1
DA:62,1
DA:63,1
DA:64,1
DA:66,1
DA:67,1
DA:68,1
DA:69,1
DA:70,1
DA:71,1
DA:72,1
DA:73,1
DA:75,274
DA:77,1
DA:78,1
DA:79,1
DA:80,1
DA:81,1
DA:82,1
DA:83,1
DA:84,1
DA:85,1
DA:86,1
DA:87,1
DA:88,1
DA:90,1
DA:91,1
DA:92,1
DA:93,1
DA:94,1
DA:95,1
DA:96,1
DA:97,1
DA:99,274
DA:101,1
DA:102,1
DA:103,1
DA:104,1
DA:105,1
DA:106,1
DA:107,1
DA:108,1
DA:109,1
DA:110,1
DA:111,1
DA:112,1
DA:114,1
DA:115,1
DA:116,1
DA:117,1
DA:118,1
DA:119,1
DA:120,1
DA:121,1
DA:123,274
DA:125,1
DA:126,1
DA:127,1
DA:128,1
DA:129,1
DA:130,1
DA:131,1
DA:132,1
DA:133,1
DA:134,1
DA:135,1
DA:136,1
DA:138,1
DA:139,1
DA:140,1
DA:141,1
DA:142,1
DA:143,1
DA:144,1
DA:145,1
DA:147,274
DA:149,1
DA:150,1
DA:151,1
DA:152,1
DA:153,1
DA:154,1
DA:155,1
DA:156,1
DA:157,1
DA:158,1
DA:159,1
DA:160,1
DA:162,1
DA:163,1
DA:164,1
DA:165,1
DA:166,1
DA:167,1
DA:168,1
DA:169,1
DA:171,274
DA:173,1
DA:174,1
DA:176,1
DA:177,1
DA:178,1
DA:179,1
DA:180,1
DA:181,1
DA:182,1
DA:183,1
DA:184,1
DA:185,1
DA:186,1
DA:187,1
DA:188,1
DA:189,1
DA:190,1
DA:192,274
DA:194,1
DA:195,1
DA:196,1
DA:197,1
DA:198,1
DA:199,1
DA:200,1
DA:201,1
DA:202,1
DA:203,1
DA:204,1
DA:205,1
DA:206,1
DA:207,1
DA:209,1
DA:210,1
DA:211,1
DA:212,1
DA:213,1
DA:214,1
LF:180
LH:180
end_of_record
TN:
SF:/Users/sens/dev/intel8080/tests/src/test_opcodes_sub.cc
FN:8,_Z13test_sub_initv
FN:22,_Z13test_sub_finiv
FN:27,__cxx_global_var_init.6
FN:27,_ZL14opcode_sub_jmpv
FN:27,opcode_sub_impl
FN:27,_ZNK3$_0clEv
FN:90,opcode_sbb_impl
FN:90,__cxx_global_var_init.18
FN:90,_ZNK3$_1clEv
FN:90,_ZL14opcode_sbb_jmpv
FN:169,_ZL14opcode_cmp_jmpv
FN:169,__cxx_global_var_init.20
FN:169,_ZNK3$_2clEv
FN:169,opcode_cmp_impl
FNDA:136,__cxx_global_var_init.6
FNDA:1,_ZL14opcode_cmp_jmpv
FNDA:3,_Z13test_sub_initv
FNDA:3,_Z13test_sub_finiv
FNDA:1,opcode_sbb_impl
FNDA:1,_ZL14opcode_sub_jmpv
FNDA:136,__cxx_global_var_init.20
FNDA:136,__cxx_global_var_init.18
FNDA:136,_ZNK3$_2clEv
FNDA:136,_ZNK3$_1clEv
FNDA:1,opcode_sub_impl
FNDA:1,opcode_cmp_impl
FNDA:136,_ZNK3$_0clEv
FNDA:1,_ZL14opcode_sbb_jmpv
FNF:14
FNH:14
DA:8,3
DA:10,3
DA:11,3
DA:12,3
DA:13,3
DA:14,3
DA:15,3
DA:16,3
DA:17,3
DA:18,3
DA:19,3
DA:20,3
DA:22,3
DA:24,3
DA:25,3
DA:27,274
DA:31,1
DA:32,1
DA:33,1
DA:34,1
DA:35,1
DA:36,1
DA:38,1
DA:39,1
DA:40,1
DA:41,1
DA:42,1
DA:43,1
DA:45,1
DA:46,1
DA:47,1
DA:48,1
DA:49,1
DA:50,1
DA:52,1
DA:53,1
DA:54,1
DA:55,1
DA:56,1
DA:57,1
DA:59,1
DA:60,1
DA:61,1
DA:62,1
DA:63,1
DA:64,1
DA:66,1
DA:67,1
DA:68,1
DA:69,1
DA:70,1
DA:71,1
DA:73,1
DA:74,1
DA:75,1
DA:76,1
DA:77,1
DA:78,1
DA:79,1
DA:80,1
DA:81,1
DA:83,1
DA:84,1
DA:85,1
DA:86,1
DA:87,1
DA:88,1
DA:90,274
DA:94,1
DA:95,1
DA:96,1
DA:97,1
DA:98,1
DA:99,1
DA:100,1
DA:101,1
DA:103,1
DA:104,1
DA:105,1
DA:106,1
DA:107,1
DA:108,1
DA:109,1
DA:110,1
DA:112,1
DA:113,1
DA:114,1
DA:115,1
DA:116,1
DA:117,1
DA:118,1
DA:119,1
DA:121,1
DA:122,1
DA:123,1
DA:124,1
DA:125,1
DA:126,1
DA:127,1
DA:128,1
DA:130,1
DA:131,1
DA:132,1
DA:133,1
DA:134,1
DA:135,1
DA:136,1
DA:137,1
DA:139,1
DA:140,1
DA:141,1
DA:142,1
DA:143,1
DA:144,1
DA:145,1
DA:146,1
DA:148,1
DA:149,1
DA:150,1
DA:151,1
DA:152,1
DA:153,1
DA:154,1
DA:155,1
DA:156,1
DA:157,1
DA:158,1
DA:160,1
DA:161,1
DA:162,1
DA:163,1
DA:164,1
DA:165,1
DA:166,1
DA:167,1
DA:169,274
DA:173,1
DA:174,1
DA:175,1
DA:176,1
DA:177,1
DA:179,1
DA:180,1
DA:181,1
DA:182,1
DA:183,1
DA:185,1
DA:186,1
DA:187,1
DA:188,1
DA:189,1
DA:191,1
DA:192,1
DA:193,1
DA:194,1
DA:195,1
DA:197,1
DA:198,1
DA:199,1
DA:200,1
DA:201,1
DA:203,1
DA:204,1
DA:205,1
DA:206,1
DA:207,1
DA:209,1
DA:210,1
DA:211,1
DA:212,1
DA:213,1
DA:214,1
DA:215,1
DA:216,1
DA:218,1
DA:219,1
DA:220,1
DA:221,1
DA:222,1
DA:223,1
LF:180
LH:180
end_of_record
